.constructors_used
.destructors_used
Choke
ClearRealCall
CreateFakeDECCall
CreateFakeIOCall
CreateShutdownCTXCall
CutTrace
DoPreemptCall
LoadDBATsCall
LoadIBATsCall
NullCall
StoreRealCall
SwitchContextCall
_AARPwakeup
_ASPgetmsg
_ASPputmsg
_ATPgetreq
_ATPgetrsp
_ATPsndreq
_ATPsndrsp
_ATgetmsg
_ATputmsg
_ATsocket
_AbortIO
_AdspBad
_AlignAssist
_AlignAssist64
_AllocateNode
_AltivecAssist
_Assert
_BF_decrypt
_BF_encrypt
_BF_set_key
_BTClosePath
_BTDeleteRecord
_BTFlushPath
_BTGetInformation
_BTGetLastSync
_BTInsertRecord
_BTInvalidateHint
_BTIterateRecord
_BTIterateRecords
_BTOpenPath
_BTReloadData
_BTReplaceRecord
_BTScanInitialize
_BTScanNextRecord
_BTScanTerminate
_BTSearchRecord
_BTSetLastSync
_BTUpdateRecord
_BestBlockSizeFit
_BootProcInfo
_BuildCatalogKey
_BuildCatalogKeyUTF8
_CURSIG
_CalcKeyRecordSize
_CalcMapBits
_CalcRecvWdw
_CalcSendQFree
_CalculateCRC
_CallTVector
_Call_Debugger
_Call_DebuggerC
_Call_continuation
_CheckAttn
_CheckInsertParams
_CheckOkToClose
_CheckReadQueue
_CheckRecvSeq
_CheckSend
_ChkAddressOK
_ChokeSys
_CleanupGlobals
_ClearNode
_ClearReal
_ClearRealLL
_CompareCatalogKeys
_CompareExtendedCatalogKeys
_CompleteQueue
_ConvertUnicodeToUTF8Mangled
_CopyCatalogName
_CreateFakeDEC
_CreateFakeDECLL
_CreateFakeIO
_CreateFakeIOLL
_CreateShutdownCTX
_CreateShutdownCTXLL
_DDP_chksum_on
_DDP_slfsnd_on
_DTCreateEntryIterator
_DTCreatePropertyIterator
_DTDisposeEntryIterator
_DTDisposePropertyIterator
_DTEnterEntry
_DTEntryIsEqual
_DTExitEntry
_DTFindEntry
_DTGetProperty
_DTInit
_DTIterateEntries
_DTIterateProperties
_DTLookupEntry
_DTRestartEntryIteration
_DTRestartPropertyIteration
_DebugStr
_DebugWork
_Debugger
_DeleteOffset
_DeleteRecord
_DeleteTree
_DisposePtr
_DoChokeLL
_DoClose
_DoPreemptLL
_DoTimerElem
_EmulExit
_Emulate
_Emulate64
_ErrorRTMPoverflow
_ErrorZIPoverflow
_ExceptionVectorsEnd
_ExceptionVectorsStart
_ExchangeFileIDs
_ExtendBTree
_FCReturn
_FWtable
_FastRelString
_FastUnicodeCompare
_FillSendQueue
_FindIteratorPosition
_FindSender
_FirmwareCall
_FloatInit
_FlushCatalog
_FreeNode
_GetChildNodeNum
_GetEmbeddedFileID
_GetLogicalBlockSize
_GetMapNode
_GetNewNode
_GetNode
_GetNodeDataSize
_GetNodeFreeSize
_GetOffsetAddress
_GetRecordByIndex
_GetRecordSize
_GetTimeUTC
_GratefulDebInit
_GratefulDebWork
_IOAlignmentToSize
_IOBSDNameMatching
_IOBSDRegistryEntryForDeviceTree
_IOBSDRegistryEntryGetData
_IOBSDRegistryEntryRelease
_IOCDMatching
_IOCreateThread
_IODTFreeLoaderInfo
_IODTGetLoaderInfo
_IODefaultCacheBits
_IODelay
_IODiskMatching
_IOExitThread
_IOFindBSDRoot
_IOFindMatchingChild
_IOFindNameForValue
_IOFindValueForName
_IOFlushProcessorCache
_IOFree
_IOFreeAligned
_IOFreeContiguous
_IOFreePageable
_IOFreePhysical
_IOGetLastPageNumber
_IOGetTime
_IOHibernateSystemHasSlept
_IOHibernateSystemInit
_IOHibernateSystemPostWake
_IOHibernateSystemSleep
_IOHibernateSystemWake
_IOIteratePageableMaps
_IOKernelAllocateContiguous
_IOKernelFreeContiguous
_IOKitBSDInit
_IOKitResetTime
_IOLibInit
_IOLockAlloc
_IOLockFree
_IOLockGetMachLock
_IOLockGroup
_IOLockInitWithState
_IOLockSleep
_IOLockSleepDeadline
_IOLockWakeup
_IOLog
_IOMalloc
_IOMallocAligned
_IOMallocContiguous
_IOMallocPageable
_IOMallocPhysical
_IOMapPages
_IOMappedRead16
_IOMappedRead32
_IOMappedRead64
_IOMappedRead8
_IOMappedWrite16
_IOMappedWrite32
_IOMappedWrite64
_IOMappedWrite8
_IOMapperIOVMAlloc
_IOMapperIOVMFree
_IOMapperInsertPPNPages
_IOMapperInsertPage
_IOMapperInsertUPLPages
_IONDRVLibrariesInitialize
_IONetworkMatching
_IONetworkNamePrefixMatching
_IOOFPathMatching
_IOPageableMapForAddress
_IOPanic
_IOPrintPlane
_IOProtectCacheMode
_IORWLockAlloc
_IORWLockFree
_IORWLockGetMachLock
_IORecursiveLockAlloc
_IORecursiveLockFree
_IORecursiveLockGetMachLock
_IORecursiveLockHaveLock
_IORecursiveLockLock
_IORecursiveLockSleep
_IORecursiveLockTryLock
_IORecursiveLockUnlock
_IORecursiveLockWakeup
_IOSetProcessorCacheMode
_IOSimpleLockAlloc
_IOSimpleLockFree
_IOSimpleLockGetMachLock
_IOSimpleLockInit
_IOSizeToAlignment
_IOSleep
_IOSpinUnlock
_IOSystemShutdownNotification
_IOTrySpinLock
_IOUUIDMatching
_IOUnmapPages
_IOZeroTvalspec
_IS_64BIT_PROCESS
_InitGlobals
_InsertKeyRecord
_InsertOffset
_InsertRecord
_InsertTimerElem
_InsertTree
_IsItAHint
_KERNEL_AUDIT_TOKEN
_KERNEL_SECURITY_TOKEN
_KUNCExecute
_KUNCGetNotificationID
_KUNCUserNotificationCancel
_KUNCUserNotificationDisplayAlert
_KUNCUserNotificationDisplayFromBundle
_KUNCUserNotificationDisplayNotice
_LLTraceSet
_LcksOpts
_LoadDBATs
_LoadIBATs
_LocalToUTC
_LocateCatalogNode
_LocateCatalogNodeByKey
_LocateCatalogRecord
_LockCompatGroup
_LockDefaultGroupAttr
_LockDefaultLckAttr
_LockTimeOut
_MCFail
_MD5Final
_MD5Init
_MD5Pad
_MD5Transform
_MD5Update
_MDFail
_MPFail
_MacToVFSError
_MapUserMemoryWindow
_MapUserMemoryWindowInit
_MutexSpin
_NDR_record
_NMIss
_NewPtr
_NewPtrSysClear
_NextCID
_NotifyUser
_NullLL
_OSAddAtomic
_OSAddAtomic16
_OSAddAtomic8
_OSBacktrace
_OSBitAndAtomic
_OSBitAndAtomic16
_OSBitAndAtomic8
_OSBitOrAtomic
_OSBitOrAtomic16
_OSBitOrAtomic8
_OSBitXorAtomic
_OSBitXorAtomic16
_OSBitXorAtomic8
_OSCompareAndSwap
_OSDecrementAtomic
_OSDecrementAtomic16
_OSDecrementAtomic8
_OSDequeueAtomic
_OSEnqueueAtomic
_OSFree
_OSIncrementAtomic
_OSIncrementAtomic16
_OSIncrementAtomic8
_OSKernelStackRemaining
_OSMalloc
_OSMalloc_Tagalloc
_OSMalloc_Tagfree
_OSMalloc_Tagref
_OSMalloc_Tagrele
_OSMalloc_init
_OSMalloc_noblock
_OSMalloc_nowait
_OSMetaClassSystemSleepOrWake
_OSPrintMemory
_OSReportWithBacktrace
_OSRuntimeFinalizeCPP
_OSRuntimeInitializeCPP
_OSRuntimeUnloadCPP
_OSRuntimeUnloadCPPForSegment
_OSTestAndClear
_OSTestAndSet
_OSUnserializechar
_OSUnserializelval
_OSUnserializenerrs
_OSlibkernInit
_PEGetGMTTimeOfDay
_PEGetMachineName
_PEGetModelName
_PEGetPlatformEpoch
_PEHaltRestart
_PESavePanicInfo
_PESetGMTTimeOfDay
_PE_Determine_Clock_Speeds
_PE_boot_args
_PE_call_timebase_callback
_PE_cpu_halt
_PE_cpu_machine_init
_PE_cpu_machine_quiesce
_PE_cpu_signal
_PE_cpu_start
_PE_create_console
_PE_current_console
_PE_display_icon
_PE_enter_debugger
_PE_find_scc
_PE_get_hotkey
_PE_halt_restart
_PE_init_iokit
_PE_init_kprintf
_PE_init_platform
_PE_init_printf
_PE_init_taproot
_PE_initialize_console
_PE_kputc
_PE_parse_boot_arg
_PE_parse_boot_argn
_PE_poll_input
_PE_putc
_PE_read_write_time_of_day
_PE_register_timebase_callback
_PE_state
_PE_write_IIC
_PFSExit
_PPCcalls
_PerProcTable
_PreliminarySetup
_QNaNbarbarian
_RT_maxentry
_RT_table
_RT_table_freelist
_RT_table_start
_RXAttention
_RXData
_RXFReset
_RXFResetAck
_RandomULong
_ReadReal
_ReleaseNode
_RemoveCCB
_RemoveTimerElem
_ReplaceBTreeRecord
_ResetHandler
_RouterError
_RouterMix
_RuptCtrs
_RxClose
_SEGSIZE
_SHA1Final
_SHA1Init
_SHA1Transform
_SHA1Update
_SHA256_Data
_SHA256_End
_SHA256_Final
_SHA256_Init
_SHA256_Transform
_SHA256_Update
_SHA384_Data
_SHA384_End
_SHA384_Final
_SHA384_Init
_SHA384_Update
_SHA512_Data
_SHA512_End
_SHA512_Final
_SHA512_Init
_SHA512_Last
_SHA512_Transform
_SHA512_Update
_SPECHASH_LOCK
_SPECHASH_UNLOCK
_SearchBTreeRecord
_SearchNode
_SearchTree
_SndMsgUp
_StartIOKit
_StoreReal
_StoreRealLL
_SwitchContextLL
_Switch_context
_SysChoked
_TRAP_TYPES
_TimerQueueTick
_TimerStop
_TimerTick
_TimerTick_funnel
_TrashNode
_TrashSession
_TrySimpleReplace
_UBCINFOCHECK
_UBCINFOEXISTS
_UBCINFOMISSING
_UBCINFORECLAIMED
_UBCINVALID
_UBCISVALID
_UNDAlertCompletedWithResult_rpc
_UNDCancelNotification_rpc
_UNDDisplayAlertFromBundle_rpc
_UNDDisplayAlertSimple_rpc
_UNDDisplayCustomFromBundle_rpc
_UNDDisplayCustomFromDictionary_rpc
_UNDDisplayNoticeFromBundle_rpc
_UNDDisplayNoticeSimple_rpc
_UNDExecute_rpc
_UNDNotificationCreated_rpc
_UNDReply_deallocate
_UNDReply_server
_UNDReply_server_routine
_UNDReply_subsystem
_UTCToLocal
_UpdateCatalogName
_UpdateHeader
_UpdateNode
_UrgentUser
_VFS_FHTOVP
_VFS_GETATTR
_VFS_MOUNT
_VFS_QUOTACTL
_VFS_ROOT
_VFS_SETATTR
_VFS_START
_VFS_SYNC
_VFS_UNMOUNT
_VFS_VGET
_VFS_VPTOFH
_VNOP_ACCESS
_VNOP_ADVLOCK
_VNOP_ALLOCATE
_VNOP_BLKTOOFF
_VNOP_BLOCKMAP
_VNOP_BWRITE
_VNOP_CLOSE
_VNOP_COPYFILE
_VNOP_CREATE
_VNOP_EXCHANGE
_VNOP_FSYNC
_VNOP_GETATTR
_VNOP_GETATTRLIST
_VNOP_GETXATTR
_VNOP_INACTIVE
_VNOP_IOCTL
_VNOP_KQFILT_ADD
_VNOP_KQFILT_REMOVE
_VNOP_LINK
_VNOP_LISTXATTR
_VNOP_LOOKUP
_VNOP_MKDIR
_VNOP_MKNOD
_VNOP_MMAP
_VNOP_MNOMAP
_VNOP_OFFTOBLK
_VNOP_OPEN
_VNOP_PAGEIN
_VNOP_PAGEOUT
_VNOP_PATHCONF
_VNOP_READ
_VNOP_READDIR
_VNOP_READDIRATTR
_VNOP_READLINK
_VNOP_RECLAIM
_VNOP_REMOVE
_VNOP_REMOVEXATTR
_VNOP_RENAME
_VNOP_REVOKE
_VNOP_RMDIR
_VNOP_SEARCHFS
_VNOP_SELECT
_VNOP_SETATTR
_VNOP_SETATTRLIST
_VNOP_SETXATTR
_VNOP_STRATEGY
_VNOP_SYMLINK
_VNOP_WHITEOUT
_VNOP_WRITE
_VerifyHeader
_WKdm_compress
_WKdm_decompress
_ZIPwakeup
_ZT_maxentry
_ZT_table
__ATPgetreq
__ATPgetrsp
__ATPsndreq
__ATPsndrsp
__ATclose
__ATgetmsg
__ATioctl
__ATkqfilter
__ATputmsg
__ATread
__ATrw
__ATselect
__ATsocket
__ATwrite
__FREE
__FREE_ZONE
__MALLOC
__MALLOC_ZONE
__Z10tellClientP8OSObjectPv
__Z11IODBDMAStopPV23IODBDMAChannelRegisters
__Z12IODBDMAFlushPV23IODBDMAChannelRegisters
__Z12IODBDMAPausePV23IODBDMAChannelRegisters
__Z12IODBDMAResetPV23IODBDMAChannelRegisters
__Z12IODBDMAStartPV23IODBDMAChannelRegistersPV17IODBDMADescriptor
__Z13OSUnserializePKcPP8OSString
__Z13readExtensionP12OSDictionaryPKc
__Z14RootRegisteredP8OSObjectPvP9IOService
__Z14readExtensionsP12OSDictionaryPKcS0_
__Z15IODBDMAContinuePV23IODBDMAChannelRegisters
__Z16IOCPUSleepKernelv
__Z16IODTFindSlotNameP15IORegistryEntrym
__Z16IODTSetResolvingP15IORegistryEntryPFlmPmS1_EPFvS0_PhS4_S4_E
__Z16IOPolledFileOpenPKcP24IOBufferMemoryDescriptorPP18IOPolledFileIOVarsPP6OSDataS8_
__Z16OSUnserializeXMLPKcPP8OSString
__Z16addPersonalitiesP12OSDictionary
__Z16uncompressModuleP6OSDataPS0_
__Z17IODTGetCellCountsP15IORegistryEntryPmS1_
__Z17IODTMapInterruptsP15IORegistryEntry
__Z17IODeviceTreeAllocPv
__Z17IOPolledFileCloseP18IOPolledFileIOVars
__Z17IOServiceOrderingPK15OSMetaClassBaseS1_Pv
__Z18IODTCompareNubNamePK15IORegistryEntryP8OSStringPS3_
__Z19IODTMapOneInterruptP15IORegistryEntryPmPP6OSDataPPK8OSSymbol
__Z19printDictionaryKeysP12OSDictionaryPc
__Z19tellAppWithResponseP8OSObjectPv
__Z20IODTMakeNVDescriptorP15IORegistryEntryP17IONVRAMDescriptor
__Z20IODTMatchNubWithKeysP15IORegistryEntryPKc
__Z20getBootLoaderObjectsv
__Z20getStartupExtensionsv
__Z21IODTResolveAddressingP15IORegistryEntryPKcP14IODeviceMemory
__Z21validateExtensionDictP12OSDictionaryi
__Z22IODTResolveAddressCellP15IORegistryEntryPmS1_S1_
__Z22removeStartupExtensionPKc
__Z22tellClientWithResponseP8OSObjectPv
__Z23IODTFindInterruptParentP15IORegistryEntry
__Z23IODTFindMatchingEntriesP15IORegistryEntrymPKc
__Z23IODTGetInterruptOptionsP15IORegistryEntryiPm
__Z23recordStartupExtensionsv
__Z24addExtensionsFromArchiveP6OSData
__Z24broadcast_aggressivenessP8OSObjectPvS1_S1_S1_
__Z24compareExtensionVersionsP12OSDictionaryS0_
__Z26mergeExtensionDictionariesP12OSDictionaryS0_
__Z26serializedAllowPowerChangeP8OSObjectPvS1_S1_S1_
__Z27IODTInterruptControllerNameP15IORegistryEntry
__Z27serializedCancelPowerChangeP8OSObjectPvS1_S1_S1_
__Z28extractExtensionsFromArchiveP17MemoryMapFileInfoP12OSDictionary
__Z32IOFreePhysicallyContiguousMemoryPjj
__Z35clearStartupExtensionsAndLoaderInfov
__Z36IOAllocatePhysicallyContiguousMemoryjjPjPm
__ZN10AppleMacIO10deleteListEv
__ZN10AppleMacIO10gMetaClassE
__ZN10AppleMacIO10processNubEP9IOService
__ZN10AppleMacIO10superClassE
__ZN10AppleMacIO11excludeListEv
__ZN10AppleMacIO12publishBelowEP15IORegistryEntry
__ZN10AppleMacIO15getNubResourcesEP9IOService
__ZN10AppleMacIO20_RESERVEDAppleMacIO0Ev
__ZN10AppleMacIO20_RESERVEDAppleMacIO1Ev
__ZN10AppleMacIO20_RESERVEDAppleMacIO2Ev
__ZN10AppleMacIO20_RESERVEDAppleMacIO3Ev
__ZN10AppleMacIO5startEP9IOService
__ZN10AppleMacIO8selfTestEv
__ZN10AppleMacIO9MetaClassC1Ev
__ZN10AppleMacIO9MetaClassC2Ev
__ZN10AppleMacIO9createNubEP15IORegistryEntry
__ZN10AppleMacIO9metaClassE
__ZN10AppleMacIOC1EPK11OSMetaClass
__ZN10AppleMacIOC2EPK11OSMetaClass
__ZN10AppleMacIOD0Ev
__ZN10AppleMacIOD2Ev
__ZN10AppleNVRAM10gMetaClassE
__ZN10AppleNVRAM10superClassE
__ZN10AppleNVRAM4readEmPhm
__ZN10AppleNVRAM5startEP9IOService
__ZN10AppleNVRAM5writeEmPhm
__ZN10AppleNVRAM9MetaClassC1Ev
__ZN10AppleNVRAM9MetaClassC2Ev
__ZN10AppleNVRAM9metaClassE
__ZN10AppleNVRAMC1EPK11OSMetaClass
__ZN10AppleNVRAMC1Ev
__ZN10AppleNVRAMC2EPK11OSMetaClass
__ZN10AppleNVRAMC2Ev
__ZN10AppleNVRAMD0Ev
__ZN10AppleNVRAMD2Ev
__ZN10IOMachPort10gMetaClassE
__ZN10IOMachPort10superClassE
__ZN10IOMachPort11dictForTypeEj
__ZN10IOMachPort13portForObjectEP8OSObjectj
__ZN10IOMachPort14setHoldDestroyEP8OSObjectj
__ZN10IOMachPort20makeSendRightForTaskEP4taskP8OSObjectj
__ZN10IOMachPort20releasePortForObjectEP8OSObjectj
__ZN10IOMachPort22noMoreSendersForObjectEP8OSObjectjPj
__ZN10IOMachPort4freeEv
__ZN10IOMachPort9MetaClassC1Ev
__ZN10IOMachPort9MetaClassC2Ev
__ZN10IOMachPort9metaClassE
__ZN10IOMachPortC1EPK11OSMetaClass
__ZN10IOMachPortC1Ev
__ZN10IOMachPortC2EPK11OSMetaClass
__ZN10IOMachPortC2Ev
__ZN10IOMachPortD0Ev
__ZN10IOMachPortD2Ev
__ZN10IONotifier10gMetaClassE
__ZN10IONotifier10superClassE
__ZN10IONotifier9MetaClassC1Ev
__ZN10IONotifier9MetaClassC2Ev
__ZN10IONotifier9metaClassE
__ZN10IONotifierC1EPK11OSMetaClass
__ZN10IONotifierC2EPK11OSMetaClass
__ZN10IONotifierD0Ev
__ZN10IONotifierD2Ev
__ZN10IOWorkLoop10gMetaClassE
__ZN10IOWorkLoop10superClassE
__ZN10IOWorkLoop10threadMainEv
__ZN10IOWorkLoop10wakeupGateEPvb
__ZN10IOWorkLoop12tryCloseGateEv
__ZN10IOWorkLoop13_maintRequestEPvS0_S0_S0_
__ZN10IOWorkLoop14addEventSourceEP13IOEventSource
__ZN10IOWorkLoop15runEventSourcesEv
__ZN10IOWorkLoop17removeEventSourceEP13IOEventSource
__ZN10IOWorkLoop19signalWorkAvailableEv
__ZN10IOWorkLoop20_RESERVEDIOWorkLoop2Ev
__ZN10IOWorkLoop20_RESERVEDIOWorkLoop3Ev
__ZN10IOWorkLoop20_RESERVEDIOWorkLoop4Ev
__ZN10IOWorkLoop20_RESERVEDIOWorkLoop5Ev
__ZN10IOWorkLoop20_RESERVEDIOWorkLoop6Ev
__ZN10IOWorkLoop20_RESERVEDIOWorkLoop7Ev
__ZN10IOWorkLoop4freeEv
__ZN10IOWorkLoop4initEv
__ZN10IOWorkLoop8openGateEv
__ZN10IOWorkLoop8workLoopEv
__ZN10IOWorkLoop9MetaClassC1Ev
__ZN10IOWorkLoop9MetaClassC2Ev
__ZN10IOWorkLoop9closeGateEv
__ZN10IOWorkLoop9metaClassE
__ZN10IOWorkLoop9runActionEPFiP8OSObjectPvS2_S2_S2_ES1_S2_S2_S2_S2_
__ZN10IOWorkLoop9sleepGateEPvm
__ZN10IOWorkLoopC1EPK11OSMetaClass
__ZN10IOWorkLoopC1Ev
__ZN10IOWorkLoopC2EPK11OSMetaClass
__ZN10IOWorkLoopC2Ev
__ZN10IOWorkLoopD0Ev
__ZN10IOWorkLoopD2Ev
__ZN10OSIterator10gMetaClassE
__ZN10OSIterator10superClassE
__ZN10OSIterator20_RESERVEDOSIterator0Ev
__ZN10OSIterator20_RESERVEDOSIterator1Ev
__ZN10OSIterator20_RESERVEDOSIterator2Ev
__ZN10OSIterator20_RESERVEDOSIterator3Ev
__ZN10OSIterator9MetaClassC1Ev
__ZN10OSIterator9MetaClassC2Ev
__ZN10OSIterator9metaClassE
__ZN10OSIteratorC1EPK11OSMetaClass
__ZN10OSIteratorC2EPK11OSMetaClass
__ZN10OSIteratorD0Ev
__ZN10OSIteratorD2Ev
__ZN11IOCatalogue10addDriversEP7OSArrayb
__ZN11IOCatalogue10gMetaClassE
__ZN11IOCatalogue10initializeEv
__ZN11IOCatalogue10superClassE
__ZN11IOCatalogue11findDriversEP12OSDictionaryPl
__ZN11IOCatalogue11findDriversEP9IOServicePl
__ZN11IOCatalogue13removeDriversEP12OSDictionaryb
__ZN11IOCatalogue13startMatchingEP12OSDictionary
__ZN11IOCatalogue15moduleHasLoadedEP8OSString
__ZN11IOCatalogue15moduleHasLoadedEPKc
__ZN11IOCatalogue16terminateDriversEP12OSDictionary
__ZN11IOCatalogue18removeKernelLinkerEv
__ZN11IOCatalogue21disableExternalLinkerEv
__ZN11IOCatalogue23recordStartupExtensionsEv
__ZN11IOCatalogue24addExtensionsFromArchiveEP6OSData
__ZN11IOCatalogue25terminateDriversForModuleEP8OSStringb
__ZN11IOCatalogue25terminateDriversForModuleEPKcb
__ZN11IOCatalogue4freeEv
__ZN11IOCatalogue4initEP7OSArray
__ZN11IOCatalogue5resetEv
__ZN11IOCatalogue9MetaClassC1Ev
__ZN11IOCatalogue9MetaClassC2Ev
__ZN11IOCatalogue9metaClassE
__ZN11IOCatalogueC1EPK11OSMetaClass
__ZN11IOCatalogueC1Ev
__ZN11IOCatalogueC2EPK11OSMetaClass
__ZN11IOCatalogueC2Ev
__ZN11IOCatalogueD0Ev
__ZN11IOCatalogueD2Ev
__ZN11IODataQueue10gMetaClassE
__ZN11IODataQueue10superClassE
__ZN11IODataQueue11withEntriesEmm
__ZN11IODataQueue12withCapacityEm
__ZN11IODataQueue15initWithEntriesEmm
__ZN11IODataQueue16initWithCapacityEm
__ZN11IODataQueue19getMemoryDescriptorEv
__ZN11IODataQueue19setNotificationPortEP8ipc_port
__ZN11IODataQueue29sendDataAvailableNotificationEv
__ZN11IODataQueue4freeEv
__ZN11IODataQueue7enqueueEPvm
__ZN11IODataQueue9MetaClassC1Ev
__ZN11IODataQueue9MetaClassC2Ev
__ZN11IODataQueue9metaClassE
__ZN11IODataQueueC1EPK11OSMetaClass
__ZN11IODataQueueC1Ev
__ZN11IODataQueueC2EPK11OSMetaClass
__ZN11IODataQueueC2Ev
__ZN11IODataQueueD0Ev
__ZN11IODataQueueD2Ev
__ZN11IOMemoryMap10gMetaClassE
__ZN11IOMemoryMap10superClassE
__ZN11IOMemoryMap18getPhysicalAddressEv
__ZN11IOMemoryMap9MetaClassC1Ev
__ZN11IOMemoryMap9MetaClassC2Ev
__ZN11IOMemoryMap9metaClassE
__ZN11IOMemoryMapC1EPK11OSMetaClass
__ZN11IOMemoryMapC2EPK11OSMetaClass
__ZN11IOMemoryMapD0Ev
__ZN11IOMemoryMapD2Ev
__ZN11IOResources10gMetaClassE
__ZN11IOResources10superClassE
__ZN11IOResources13setPropertiesEP8OSObject
__ZN11IOResources18matchPropertyTableEP12OSDictionary
__ZN11IOResources9MetaClassC1Ev
__ZN11IOResources9MetaClassC2Ev
__ZN11IOResources9metaClassE
__ZN11IOResources9resourcesEv
__ZN11IOResourcesC1EPK11OSMetaClass
__ZN11IOResourcesC1Ev
__ZN11IOResourcesC2EPK11OSMetaClass
__ZN11IOResourcesC2Ev
__ZN11IOResourcesD0Ev
__ZN11IOResourcesD2Ev
__ZN11OSMetaClass10preModLoadEPKc
__ZN11OSMetaClass11postModLoadEPv
__ZN11OSMetaClass12checkModLoadEPv
__ZN11OSMetaClass14modHasInstanceEPKc
__ZN11OSMetaClass15considerUnloadsEv
__ZN11OSMetaClass18allocClassWithNameEPK8OSString
__ZN11OSMetaClass18allocClassWithNameEPK8OSSymbol
__ZN11OSMetaClass18allocClassWithNameEPKc
__ZN11OSMetaClass18getClassDictionaryEv
__ZN11OSMetaClass18reportModInstancesEPKc
__ZN11OSMetaClass19printInstanceCountsEv
__ZN11OSMetaClass20getMetaClassWithNameEPK8OSSymbol
__ZN11OSMetaClass21_RESERVEDOSMetaClass0Ev
__ZN11OSMetaClass21_RESERVEDOSMetaClass1Ev
__ZN11OSMetaClass21_RESERVEDOSMetaClass2Ev
__ZN11OSMetaClass21_RESERVEDOSMetaClass3Ev
__ZN11OSMetaClass21_RESERVEDOSMetaClass4Ev
__ZN11OSMetaClass21_RESERVEDOSMetaClass5Ev
__ZN11OSMetaClass21_RESERVEDOSMetaClass6Ev
__ZN11OSMetaClass21_RESERVEDOSMetaClass7Ev
__ZN11OSMetaClass21checkMetaCastWithNameEPK8OSStringPK15OSMetaClassBase
__ZN11OSMetaClass21checkMetaCastWithNameEPK8OSSymbolPK15OSMetaClassBase
__ZN11OSMetaClass21checkMetaCastWithNameEPKcPK15OSMetaClassBase
__ZN11OSMetaClass24serializeClassDictionaryEP12OSDictionary
__ZN11OSMetaClass8logErrorEi
__ZN11OSMetaClass9metaClassE
__ZN11OSMetaClassC1EPKcPKS_j
__ZN11OSMetaClassC2EPKcPKS_j
__ZN11OSMetaClassD0Ev
__ZN11OSMetaClassD2Ev
__ZN11OSMetaClassdlEPvm
__ZN11OSMetaClassnwEm
__ZN11OSSerialize10gMetaClassE
__ZN11OSSerialize10superClassE
__ZN11OSSerialize12addXMLEndTagEPKc
__ZN11OSSerialize12withCapacityEj
__ZN11OSSerialize14addXMLStartTagEPK15OSMetaClassBasePKc
__ZN11OSSerialize14ensureCapacityEj
__ZN11OSSerialize16initWithCapacityEj
__ZN11OSSerialize20previouslySerializedEPK15OSMetaClassBase
__ZN11OSSerialize20setCapacityIncrementEj
__ZN11OSSerialize21_RESERVEDOSSerialize0Ev
__ZN11OSSerialize21_RESERVEDOSSerialize1Ev
__ZN11OSSerialize21_RESERVEDOSSerialize2Ev
__ZN11OSSerialize21_RESERVEDOSSerialize3Ev
__ZN11OSSerialize21_RESERVEDOSSerialize4Ev
__ZN11OSSerialize21_RESERVEDOSSerialize5Ev
__ZN11OSSerialize21_RESERVEDOSSerialize6Ev
__ZN11OSSerialize21_RESERVEDOSSerialize7Ev
__ZN11OSSerialize4freeEv
__ZN11OSSerialize7addCharEc
__ZN11OSSerialize9MetaClassC1Ev
__ZN11OSSerialize9MetaClassC2Ev
__ZN11OSSerialize9addStringEPKc
__ZN11OSSerialize9clearTextEv
__ZN11OSSerialize9metaClassE
__ZN11OSSerializeC1EPK11OSMetaClass
__ZN11OSSerializeC1Ev
__ZN11OSSerializeC2EPK11OSMetaClass
__ZN11OSSerializeC2Ev
__ZN11OSSerializeD0Ev
__ZN11OSSerializeD2Ev
__ZN12IOCopyMapper10gMetaClassE
__ZN12IOCopyMapper10iovmInsertEjmP13upl_page_infom
__ZN12IOCopyMapper10iovmInsertEjmPjm
__ZN12IOCopyMapper10iovmInsertEjmj
__ZN12IOCopyMapper10superClassE
__ZN12IOCopyMapper12initHardwareEP9IOService
__ZN12IOCopyMapper14invalidateDARTEjm
__ZN12IOCopyMapper4freeEv
__ZN12IOCopyMapper7breakUpEjjj
__ZN12IOCopyMapper7mapAddrEm
__ZN12IOCopyMapper8iovmFreeEjm
__ZN12IOCopyMapper9MetaClassC1Ev
__ZN12IOCopyMapper9MetaClassC2Ev
__ZN12IOCopyMapper9iovmAllocEm
__ZN12IOCopyMapper9metaClassE
__ZN12IOCopyMapperC1EPK11OSMetaClass
__ZN12IOCopyMapperC1Ev
__ZN12IOCopyMapperC2EPK11OSMetaClass
__ZN12IOCopyMapperC2Ev
__ZN12IOCopyMapperD0Ev
__ZN12IOCopyMapperD2Ev
__ZN12IODMACommand10gMetaClassE
__ZN12IODMACommand10superClassE
__ZN12IODMACommand11OutputBig32EPS_NS_9Segment64EPvm
__ZN12IODMACommand11OutputBig64EPS_NS_9Segment64EPvm
__ZN12IODMACommand11synchronizeEm
__ZN12IODMACommand12OutputHost32EPS_NS_9Segment64EPvm
__ZN12IODMACommand12OutputHost64EPS_NS_9Segment64EPvm
__ZN12IODMACommand12cloneCommandEPv
__ZN12IODMACommand14OutputLittle32EPS_NS_9Segment64EPvm
__ZN12IODMACommand14OutputLittle64EPS_NS_9Segment64EPvm
__ZN12IODMACommand15genIOVMSegmentsEPFiPvPS_NS_9Segment64ES0_mES0_PyS0_Pm
__ZN12IODMACommand15genIOVMSegmentsEPyPvPm
__ZN12IODMACommand17withSpecificationEPFbPS_NS_9Segment64EPvmEhyNS_14MappingOptionsEymP8IOMapperS2_
__ZN12IODMACommand19clientOutputSegmentEPvPS_NS_9Segment64ES0_m
__ZN12IODMACommand19setMemoryDescriptorEPK18IOMemoryDescriptorb
__ZN12IODMACommand21clearMemoryDescriptorEb
__ZN12IODMACommand21initWithSpecificationEPFbPS_NS_9Segment64EPvmEhyNS_14MappingOptionsEymP8IOMapperS2_
__ZN12IODMACommand22_RESERVEDIODMACommand0Ev
__ZN12IODMACommand22_RESERVEDIODMACommand1Ev
__ZN12IODMACommand22_RESERVEDIODMACommand2Ev
__ZN12IODMACommand22_RESERVEDIODMACommand3Ev
__ZN12IODMACommand22_RESERVEDIODMACommand4Ev
__ZN12IODMACommand22_RESERVEDIODMACommand5Ev
__ZN12IODMACommand22_RESERVEDIODMACommand6Ev
__ZN12IODMACommand22_RESERVEDIODMACommand7Ev
__ZN12IODMACommand22_RESERVEDIODMACommand8Ev
__ZN12IODMACommand22_RESERVEDIODMACommand9Ev
__ZN12IODMACommand23_RESERVEDIODMACommand10Ev
__ZN12IODMACommand23_RESERVEDIODMACommand11Ev
__ZN12IODMACommand23_RESERVEDIODMACommand12Ev
__ZN12IODMACommand23_RESERVEDIODMACommand13Ev
__ZN12IODMACommand23_RESERVEDIODMACommand14Ev
__ZN12IODMACommand23_RESERVEDIODMACommand15Ev
__ZN12IODMACommand24prepareWithSpecificationEPFbPS_NS_9Segment64EPvmEhyNS_14MappingOptionsEymP8IOMapperyybb
__ZN12IODMACommand4freeEv
__ZN12IODMACommand7prepareEyybb
__ZN12IODMACommand7walkAllEh
__ZN12IODMACommand8completeEbb
__ZN12IODMACommand9MetaClassC1Ev
__ZN12IODMACommand9MetaClassC2Ev
__ZN12IODMACommand9metaClassE
__ZN12IODMACommand9segmentOpEPvPS_NS_9Segment64ES0_m
__ZN12IODMACommandC1EPK11OSMetaClass
__ZN12IODMACommandC1Ev
__ZN12IODMACommandC2EPK11OSMetaClass
__ZN12IODMACommandC2Ev
__ZN12IODMACommandD0Ev
__ZN12IODMACommandD2Ev
__ZN12IOPMinformee10gMetaClassE
__ZN12IOPMinformee10initializeEP9IOService
__ZN12IOPMinformee10superClassE
__ZN12IOPMinformee4freeEv
__ZN12IOPMinformee9MetaClassC1Ev
__ZN12IOPMinformee9MetaClassC2Ev
__ZN12IOPMinformee9metaClassE
__ZN12IOPMinformeeC1EPK11OSMetaClass
__ZN12IOPMinformeeC1Ev
__ZN12IOPMinformeeC2EPK11OSMetaClass
__ZN12IOPMinformeeC2Ev
__ZN12IOPMinformeeD0Ev
__ZN12IOPMinformeeD2Ev
__ZN12IORootParent10dozeSystemEv
__ZN12IORootParent10gMetaClassE
__ZN12IORootParent10superClassE
__ZN12IORootParent10wakeSystemEv
__ZN12IORootParent11sleepSystemEv
__ZN12IORootParent11sleepToDozeEv
__ZN12IORootParent13restartSystemEv
__ZN12IORootParent14shutDownSystemEv
__ZN12IORootParent22changePowerStateToPrivEm
__ZN12IORootParent5startEP9IOService
__ZN12IORootParent9MetaClassC1Ev
__ZN12IORootParent9MetaClassC2Ev
__ZN12IORootParent9metaClassE
__ZN12IORootParentC1EPK11OSMetaClass
__ZN12IORootParentC1Ev
__ZN12IORootParentC2EPK11OSMetaClass
__ZN12IORootParentC2Ev
__ZN12IORootParentD0Ev
__ZN12IORootParentD2Ev
__ZN12IOUserClient10clientDiedEv
__ZN12IOUserClient10gMetaClassE
__ZN12IOUserClient10getServiceEv
__ZN12IOUserClient10initializeEv
__ZN12IOUserClient10superClassE
__ZN12IOUserClient11clientCloseEv
__ZN12IOUserClient12initWithTaskEP4taskPvm
__ZN12IOUserClient12initWithTaskEP4taskPvmP12OSDictionary
__ZN12IOUserClient13connectClientEPS_
__ZN12IOUserClient15mapClientMemoryEmP4taskmj
__ZN12IOUserClient15sendAsyncResultEPjiPPvm
__ZN12IOUserClient17setAsyncReferenceEPjP8ipc_portPvS3_
__ZN12IOUserClient18clientHasPrivilegeEPvPKc
__ZN12IOUserClient19clientMemoryForTypeEmPmPP18IOMemoryDescriptor
__ZN12IOUserClient20exportObjectToClientEP4taskP8OSObjectPS3_
__ZN12IOUserClient21destroyUserReferencesEP8OSObject
__ZN12IOUserClient22_RESERVEDIOUserClient0Ev
__ZN12IOUserClient22_RESERVEDIOUserClient1Ev
__ZN12IOUserClient22_RESERVEDIOUserClient2Ev
__ZN12IOUserClient22_RESERVEDIOUserClient3Ev
__ZN12IOUserClient22_RESERVEDIOUserClient4Ev
__ZN12IOUserClient22_RESERVEDIOUserClient5Ev
__ZN12IOUserClient22_RESERVEDIOUserClient6Ev
__ZN12IOUserClient22_RESERVEDIOUserClient7Ev
__ZN12IOUserClient22_RESERVEDIOUserClient8Ev
__ZN12IOUserClient22_RESERVEDIOUserClient9Ev
__ZN12IOUserClient23_RESERVEDIOUserClient10Ev
__ZN12IOUserClient23_RESERVEDIOUserClient11Ev
__ZN12IOUserClient23_RESERVEDIOUserClient12Ev
__ZN12IOUserClient23_RESERVEDIOUserClient13Ev
__ZN12IOUserClient23_RESERVEDIOUserClient14Ev
__ZN12IOUserClient23_RESERVEDIOUserClient15Ev
__ZN12IOUserClient23getExternalTrapForIndexEm
__ZN12IOUserClient24getNotificationSemaphoreEmPP9semaphore
__ZN12IOUserClient24getTargetAndTrapForIndexEPP9IOServicem
__ZN12IOUserClient24registerNotificationPortEP8ipc_portmm
__ZN12IOUserClient25getExternalMethodForIndexEm
__ZN12IOUserClient26getTargetAndMethodForIndexEPP9IOServicem
__ZN12IOUserClient26removeMappingForDescriptorEP18IOMemoryDescriptor
__ZN12IOUserClient30getExternalAsyncMethodForIndexEm
__ZN12IOUserClient31getAsyncTargetAndMethodForIndexEPP9IOServicem
__ZN12IOUserClient4freeEv
__ZN12IOUserClient4initEP12OSDictionary
__ZN12IOUserClient4initEv
__ZN12IOUserClient9MetaClassC1Ev
__ZN12IOUserClient9MetaClassC2Ev
__ZN12IOUserClient9metaClassE
__ZN12IOUserClientC1EPK11OSMetaClass
__ZN12IOUserClientC2EPK11OSMetaClass
__ZN12IOUserClientD0Ev
__ZN12IOUserClientD2Ev
__ZN12KLDBootstrapC1Ev
__ZN12KLDBootstrapC2Ev
__ZN12KLDBootstrapD1Ev
__ZN12KLDBootstrapD2Ev
__ZN12OSCollection10gMetaClassE
__ZN12OSCollection10setOptionsEjjPv
__ZN12OSCollection10superClassE
__ZN12OSCollection11haveUpdatedEv
__ZN12OSCollection14copyCollectionEP12OSDictionary
__ZN12OSCollection22_RESERVEDOSCollection2Ev
__ZN12OSCollection22_RESERVEDOSCollection3Ev
__ZN12OSCollection22_RESERVEDOSCollection4Ev
__ZN12OSCollection22_RESERVEDOSCollection5Ev
__ZN12OSCollection22_RESERVEDOSCollection6Ev
__ZN12OSCollection22_RESERVEDOSCollection7Ev
__ZN12OSCollection4initEv
__ZN12OSCollection9MetaClassC1Ev
__ZN12OSCollection9MetaClassC2Ev
__ZN12OSCollection9metaClassE
__ZN12OSCollectionC1EPK11OSMetaClass
__ZN12OSCollectionC2EPK11OSMetaClass
__ZN12OSCollectionD0Ev
__ZN12OSCollectionD2Ev
__ZN12OSDictionary10gMetaClassE
__ZN12OSDictionary10setOptionsEjjPv
__ZN12OSDictionary10superClassE
__ZN12OSDictionary11withObjectsEPPK8OSObjectPPK8OSStringjj
__ZN12OSDictionary11withObjectsEPPK8OSObjectPPK8OSSymboljj
__ZN12OSDictionary12removeObjectEPK8OSString
__ZN12OSDictionary12removeObjectEPK8OSSymbol
__ZN12OSDictionary12removeObjectEPKc
__ZN12OSDictionary12withCapacityEj
__ZN12OSDictionary14copyCollectionEPS_
__ZN12OSDictionary14ensureCapacityEj
__ZN12OSDictionary14withDictionaryEPKS_j
__ZN12OSDictionary15flushCollectionEv
__ZN12OSDictionary15initWithObjectsEPPK8OSObjectPPK8OSStringjj
__ZN12OSDictionary15initWithObjectsEPPK8OSObjectPPK8OSSymboljj
__ZN12OSDictionary16initWithCapacityEj
__ZN12OSDictionary18initWithDictionaryEPKS_j
__ZN12OSDictionary20setCapacityIncrementEj
__ZN12OSDictionary22_RESERVEDOSDictionary0Ev
__ZN12OSDictionary22_RESERVEDOSDictionary1Ev
__ZN12OSDictionary22_RESERVEDOSDictionary2Ev
__ZN12OSDictionary22_RESERVEDOSDictionary3Ev
__ZN12OSDictionary22_RESERVEDOSDictionary4Ev
__ZN12OSDictionary22_RESERVEDOSDictionary5Ev
__ZN12OSDictionary22_RESERVEDOSDictionary6Ev
__ZN12OSDictionary22_RESERVEDOSDictionary7Ev
__ZN12OSDictionary4freeEv
__ZN12OSDictionary5mergeEPKS_
__ZN12OSDictionary9MetaClassC1Ev
__ZN12OSDictionary9MetaClassC2Ev
__ZN12OSDictionary9metaClassE
__ZN12OSDictionary9setObjectEPK8OSStringPK15OSMetaClassBase
__ZN12OSDictionary9setObjectEPK8OSSymbolPK15OSMetaClassBase
__ZN12OSDictionary9setObjectEPKcPK15OSMetaClassBase
__ZN12OSDictionaryC1EPK11OSMetaClass
__ZN12OSDictionaryC1Ev
__ZN12OSDictionaryC2EPK11OSMetaClass
__ZN12OSDictionaryC2Ev
__ZN12OSDictionaryD0Ev
__ZN12OSDictionaryD2Ev
__ZN12OSOrderedSet10gMetaClassE
__ZN12OSOrderedSet10setOptionsEjjPv
__ZN12OSOrderedSet10superClassE
__ZN12OSOrderedSet11orderObjectEPK15OSMetaClassBase
__ZN12OSOrderedSet12removeObjectEPK15OSMetaClassBase
__ZN12OSOrderedSet12withCapacityEjPFlPK15OSMetaClassBaseS2_PvES3_
__ZN12OSOrderedSet13setLastObjectEPK15OSMetaClassBase
__ZN12OSOrderedSet14copyCollectionEP12OSDictionary
__ZN12OSOrderedSet14ensureCapacityEj
__ZN12OSOrderedSet14getOrderingRefEv
__ZN12OSOrderedSet14setFirstObjectEPK15OSMetaClassBase
__ZN12OSOrderedSet15flushCollectionEv
__ZN12OSOrderedSet16initWithCapacityEjPFlPK15OSMetaClassBaseS2_PvES3_
__ZN12OSOrderedSet20setCapacityIncrementEj
__ZN12OSOrderedSet22_RESERVEDOSOrderedSet0Ev
__ZN12OSOrderedSet22_RESERVEDOSOrderedSet1Ev
__ZN12OSOrderedSet22_RESERVEDOSOrderedSet2Ev
__ZN12OSOrderedSet22_RESERVEDOSOrderedSet3Ev
__ZN12OSOrderedSet22_RESERVEDOSOrderedSet4Ev
__ZN12OSOrderedSet22_RESERVEDOSOrderedSet5Ev
__ZN12OSOrderedSet22_RESERVEDOSOrderedSet6Ev
__ZN12OSOrderedSet22_RESERVEDOSOrderedSet7Ev
__ZN12OSOrderedSet4freeEv
__ZN12OSOrderedSet9MetaClassC1Ev
__ZN12OSOrderedSet9MetaClassC2Ev
__ZN12OSOrderedSet9metaClassE
__ZN12OSOrderedSet9setObjectEPK15OSMetaClassBase
__ZN12OSOrderedSet9setObjectEjPK15OSMetaClassBase
__ZN12OSOrderedSetC1EPK11OSMetaClass
__ZN12OSOrderedSetC1Ev
__ZN12OSOrderedSetC2EPK11OSMetaClass
__ZN12OSOrderedSetC2Ev
__ZN12OSOrderedSetD0Ev
__ZN12OSOrderedSetD2Ev
__ZN12OSSerializer10gMetaClassE
__ZN12OSSerializer10superClassE
__ZN12OSSerializer9MetaClassC1Ev
__ZN12OSSerializer9MetaClassC2Ev
__ZN12OSSerializer9forTargetEPvPFbS0_S0_P11OSSerializeES0_
__ZN12OSSerializer9metaClassE
__ZN12OSSerializerC1EPK11OSMetaClass
__ZN12OSSerializerC1Ev
__ZN12OSSerializerC2EPK11OSMetaClass
__ZN12OSSerializerC2Ev
__ZN12OSSerializerD0Ev
__ZN12OSSerializerD2Ev
__ZN12OSSymbolPool12insertSymbolEP8OSSymbol
__ZN12OSSymbolPool12removeSymbolEP8OSSymbol
__ZN12OSSymbolPool13initHashStateEv
__ZN12OSSymbolPool13nextHashStateEP17OSSymbolPoolState
__ZN12OSSymbolPool18reconstructSymbolsEv
__ZN12OSSymbolPool4initEv
__ZN12OSSymbolPool4log2Ej
__ZN12OSSymbolPool6exp2mlEj
__ZN12OSSymbolPoolC1EPKS_
__ZN12OSSymbolPoolC2EPKS_
__ZN12OSSymbolPoolD0Ev
__ZN12OSSymbolPoolD1Ev
__ZN12OSSymbolPoolD2Ev
__ZN12OSSymbolPooldlEPvm
__ZN12OSSymbolPoolnwEm
__ZN12_IOMemoryMap10gMetaClassE
__ZN12_IOMemoryMap10superClassE
__ZN12_IOMemoryMap13getMapOptionsEv
__ZN12_IOMemoryMap14copyCompatibleEP18IOMemoryDescriptorP4taskjmmm
__ZN12_IOMemoryMap14getAddressTaskEv
__ZN12_IOMemoryMap14initCompatibleEP18IOMemoryDescriptorP11IOMemoryMapmm
__ZN12_IOMemoryMap17getVirtualAddressEv
__ZN12_IOMemoryMap18getPhysicalSegmentEmPm
__ZN12_IOMemoryMap18initWithDescriptorEP18IOMemoryDescriptorP4taskjmmm
__ZN12_IOMemoryMap19getMemoryDescriptorEv
__ZN12_IOMemoryMap4freeEv
__ZN12_IOMemoryMap5unmapEv
__ZN12_IOMemoryMap8redirectEP18IOMemoryDescriptormm
__ZN12_IOMemoryMap8redirectEP4taskb
__ZN12_IOMemoryMap8taskDiedEv
__ZN12_IOMemoryMap9MetaClassC1Ev
__ZN12_IOMemoryMap9MetaClassC2Ev
__ZN12_IOMemoryMap9getLengthEv
__ZN12_IOMemoryMap9metaClassE
__ZN12_IOMemoryMapC1EPK11OSMetaClass
__ZN12_IOMemoryMapC1Ev
__ZN12_IOMemoryMapC2EPK11OSMetaClass
__ZN12_IOMemoryMapC2Ev
__ZN12_IOMemoryMapD0Ev
__ZN12_IOMemoryMapD2Ev
__ZN13IOCommandGate10gMetaClassE
__ZN13IOCommandGate10runCommandEPvS0_S0_S0_
__ZN13IOCommandGate10superClassE
__ZN13IOCommandGate11commandGateEP8OSObjectPFiS1_PvS2_S2_S2_E
__ZN13IOCommandGate11setWorkLoopEP10IOWorkLoop
__ZN13IOCommandGate12checkForWorkEv
__ZN13IOCommandGate12commandSleepEPvm
__ZN13IOCommandGate13attemptActionEPFiP8OSObjectPvS2_S2_S2_ES2_S2_S2_S2_
__ZN13IOCommandGate13commandWakeupEPvb
__ZN13IOCommandGate14attemptCommandEPvS0_S0_S0_
__ZN13IOCommandGate23_RESERVEDIOCommandGate0Ev
__ZN13IOCommandGate23_RESERVEDIOCommandGate1Ev
__ZN13IOCommandGate23_RESERVEDIOCommandGate2Ev
__ZN13IOCommandGate23_RESERVEDIOCommandGate3Ev
__ZN13IOCommandGate23_RESERVEDIOCommandGate4Ev
__ZN13IOCommandGate23_RESERVEDIOCommandGate5Ev
__ZN13IOCommandGate23_RESERVEDIOCommandGate6Ev
__ZN13IOCommandGate23_RESERVEDIOCommandGate7Ev
__ZN13IOCommandGate4freeEv
__ZN13IOCommandGate4initEP8OSObjectPFiS1_PvS2_S2_S2_E
__ZN13IOCommandGate6enableEv
__ZN13IOCommandGate7disableEv
__ZN13IOCommandGate9MetaClassC1Ev
__ZN13IOCommandGate9MetaClassC2Ev
__ZN13IOCommandGate9metaClassE
__ZN13IOCommandGate9runActionEPFiP8OSObjectPvS2_S2_S2_ES2_S2_S2_S2_
__ZN13IOCommandGateC1EPK11OSMetaClass
__ZN13IOCommandGateC1Ev
__ZN13IOCommandGateC2EPK11OSMetaClass
__ZN13IOCommandGateC2Ev
__ZN13IOCommandGateD0Ev
__ZN13IOCommandGateD2Ev
__ZN13IOCommandPool10gMetaClassE
__ZN13IOCommandPool10getCommandEb
__ZN13IOCommandPool10superClassE
__ZN13IOCommandPool11commandPoolEP9IOServiceP10IOWorkLoopm
__ZN13IOCommandPool12withWorkLoopEP10IOWorkLoop
__ZN13IOCommandPool13returnCommandEP9IOCommand
__ZN13IOCommandPool15gatedGetCommandEPP9IOCommandb
__ZN13IOCommandPool16initWithWorkLoopEP10IOWorkLoop
__ZN13IOCommandPool18gatedReturnCommandEP9IOCommand
__ZN13IOCommandPool23_RESERVEDIOCommandPool0Ev
__ZN13IOCommandPool23_RESERVEDIOCommandPool1Ev
__ZN13IOCommandPool23_RESERVEDIOCommandPool2Ev
__ZN13IOCommandPool23_RESERVEDIOCommandPool3Ev
__ZN13IOCommandPool23_RESERVEDIOCommandPool4Ev
__ZN13IOCommandPool23_RESERVEDIOCommandPool5Ev
__ZN13IOCommandPool23_RESERVEDIOCommandPool6Ev
__ZN13IOCommandPool23_RESERVEDIOCommandPool7Ev
__ZN13IOCommandPool4freeEv
__ZN13IOCommandPool4initEP9IOServiceP10IOWorkLoopm
__ZN13IOCommandPool9MetaClassC1Ev
__ZN13IOCommandPool9MetaClassC2Ev
__ZN13IOCommandPool9metaClassE
__ZN13IOCommandPoolC1EPK11OSMetaClass
__ZN13IOCommandPoolC1Ev
__ZN13IOCommandPoolC2EPK11OSMetaClass
__ZN13IOCommandPoolC2Ev
__ZN13IOCommandPoolD0Ev
__ZN13IOCommandPoolD2Ev
__ZN13IOEventSource10gMetaClassE
__ZN13IOEventSource10superClassE
__ZN13IOEventSource10wakeupGateEPvb
__ZN13IOEventSource11setWorkLoopEP10IOWorkLoop
__ZN13IOEventSource12tryCloseGateEv
__ZN13IOEventSource19signalWorkAvailableEv
__ZN13IOEventSource23_RESERVEDIOEventSource0Ev
__ZN13IOEventSource23_RESERVEDIOEventSource1Ev
__ZN13IOEventSource23_RESERVEDIOEventSource2Ev
__ZN13IOEventSource23_RESERVEDIOEventSource3Ev
__ZN13IOEventSource23_RESERVEDIOEventSource4Ev
__ZN13IOEventSource23_RESERVEDIOEventSource5Ev
__ZN13IOEventSource23_RESERVEDIOEventSource6Ev
__ZN13IOEventSource23_RESERVEDIOEventSource7Ev
__ZN13IOEventSource4initEP8OSObjectPFvS1_zE
__ZN13IOEventSource6enableEv
__ZN13IOEventSource7disableEv
__ZN13IOEventSource7setNextEPS_
__ZN13IOEventSource8openGateEv
__ZN13IOEventSource9MetaClassC1Ev
__ZN13IOEventSource9MetaClassC2Ev
__ZN13IOEventSource9closeGateEv
__ZN13IOEventSource9metaClassE
__ZN13IOEventSource9setActionEPFvP8OSObjectzE
__ZN13IOEventSource9sleepGateEPvm
__ZN13IOEventSourceC1EPK11OSMetaClass
__ZN13IOEventSourceC2EPK11OSMetaClass
__ZN13IOEventSourceD0Ev
__ZN13IOEventSourceD2Ev
__ZN13_IOServiceJob10gMetaClassE
__ZN13_IOServiceJob10pingConfigEPS_
__ZN13_IOServiceJob10superClassE
__ZN13_IOServiceJob8startJobEP9IOServiceim
__ZN13_IOServiceJob9MetaClassC1Ev
__ZN13_IOServiceJob9MetaClassC2Ev
__ZN13_IOServiceJob9metaClassE
__ZN13_IOServiceJobC1EPK11OSMetaClass
__ZN13_IOServiceJobC1Ev
__ZN13_IOServiceJobC2EPK11OSMetaClass
__ZN13_IOServiceJobC2Ev
__ZN13_IOServiceJobD0Ev
__ZN13_IOServiceJobD2Ev
__ZN14IOCommandQueue10gMetaClassE
__ZN14IOCommandQueue10superClassE
__ZN14IOCommandQueue12checkForWorkEv
__ZN14IOCommandQueue12commandQueueEP8OSObjectPFvS1_PvS2_S2_S2_Ei
__ZN14IOCommandQueue14enqueueCommandEbPvS0_S0_S0_
__ZN14IOCommandQueue15performAndFlushEP8OSObjectPFvS1_PvS2_S2_S2_E
__ZN14IOCommandQueue4freeEv
__ZN14IOCommandQueue4initEP8OSObjectPFvS1_PvS2_S2_S2_Ei
__ZN14IOCommandQueue9MetaClassC1Ev
__ZN14IOCommandQueue9MetaClassC2Ev
__ZN14IOCommandQueue9metaClassE
__ZN14IOCommandQueueC1EPK11OSMetaClass
__ZN14IOCommandQueueC1Ev
__ZN14IOCommandQueueC2EPK11OSMetaClass
__ZN14IOCommandQueueC2Ev
__ZN14IOCommandQueueD0Ev
__ZN14IOCommandQueueD2Ev
__ZN14IODeviceMemory12withSubRangeEPS_mm
__ZN14IODeviceMemory13arrayFromListEPNS_11InitElementEm
__ZN14IODeviceMemory9withRangeEmm
__ZN14IOMemoryCursor10gMetaClassE
__ZN14IOMemoryCursor10superClassE
__ZN14IOMemoryCursor17withSpecificationEPFvNS_15PhysicalSegmentEPvmEmmm
__ZN14IOMemoryCursor19genPhysicalSegmentsEP18IOMemoryDescriptormPvmmPm
__ZN14IOMemoryCursor21initWithSpecificationEPFvNS_15PhysicalSegmentEPvmEmmm
__ZN14IOMemoryCursor9MetaClassC1Ev
__ZN14IOMemoryCursor9MetaClassC2Ev
__ZN14IOMemoryCursor9metaClassE
__ZN14IOMemoryCursorC1EPK11OSMetaClass
__ZN14IOMemoryCursorC1Ev
__ZN14IOMemoryCursorC2EPK11OSMetaClass
__ZN14IOMemoryCursorC2Ev
__ZN14IOMemoryCursorD0Ev
__ZN14IOMemoryCursorD2Ev
__ZN14IOPMrootDomain10gMetaClassE
__ZN14IOPMrootDomain10superClassE
__ZN14IOPMrootDomain10youAreRootEv
__ZN14IOPMrootDomain11sleepSystemEv
__ZN14IOPMrootDomain12broadcast_itEmm
__ZN14IOPMrootDomain12getPMArbiterEv
__ZN14IOPMrootDomain12setPMSettingEPK8OSSymbolP8OSObject
__ZN14IOPMrootDomain12tellChangeUpEm
__ZN14IOPMrootDomain12unIdleDeviceEP9IOServicem
__ZN14IOPMrootDomain12wakeFromDozeEv
__ZN14IOPMrootDomain13askChangeDownEm
__ZN14IOPMrootDomain13copyPMSettingEP8OSSymbol
__ZN14IOPMrootDomain13restartSystemEv
__ZN14IOPMrootDomain13setPropertiesEP8OSObject
__ZN14IOPMrootDomain14publishFeatureEPKc
__ZN14IOPMrootDomain14publishFeatureEPKcjPj
__ZN14IOPMrootDomain14shutdownSystemEv
__ZN14IOPMrootDomain14tellChangeDownEm
__ZN14IOPMrootDomain15powerChangeDoneEm
__ZN14IOPMrootDomain15reportUserInputEv
__ZN14IOPMrootDomain16adjustPowerStateEv
__ZN14IOPMrootDomain16batteryPublishedEPvS0_P9IOService
__ZN14IOPMrootDomain16command_receivedEPvS0_S0_S0_
__ZN14IOPMrootDomain16tellNoChangeDownEm
__ZN14IOPMrootDomain17getSleepSupportedEv
__ZN14IOPMrootDomain17setAggressivenessEmm
__ZN14IOPMrootDomain17setSleepSupportedEm
__ZN14IOPMrootDomain18changePowerStateToEm
__ZN14IOPMrootDomain19sysPowerDownHandlerEPvS0_mP9IOServiceS0_j
__ZN14IOPMrootDomain22changePowerStateToPrivEm
__ZN14IOPMrootDomain22removePublishedFeatureEj
__ZN14IOPMrootDomain23requestPowerDomainStateEmP17IOPowerConnectionm
__ZN14IOPMrootDomain23setQuickSpinDownTimeoutEv
__ZN14IOPMrootDomain24displayWranglerPublishedEPvS0_P9IOService
__ZN14IOPMrootDomain24receivePowerNotificationEm
__ZN14IOPMrootDomain25announcePowerSourceChangeEv
__ZN14IOPMrootDomain26handleSleepTimerExpirationEv
__ZN14IOPMrootDomain26restoreUserSpinDownTimeoutEv
__ZN14IOPMrootDomain27displayWranglerNotificationEPvS0_mP9IOServiceS0_j
__ZN14IOPMrootDomain27registerPMSettingControllerEPPK8OSSymbolPFiP8OSObjectS2_S5_mES5_mPS5_
__ZN14IOPMrootDomain27registerPMSettingControllerEPPK8OSSymboljPFiP8OSObjectS2_S5_mES5_mPS5_
__ZN14IOPMrootDomain28shouldSleepOnClamshellClosedEv
__ZN14IOPMrootDomain31sendClientClamshellNotificationEv
__ZN14IOPMrootDomain39stopIgnoringClamshellEventsDuringWakeupEv
__ZN14IOPMrootDomain5startEP9IOService
__ZN14IOPMrootDomain9MetaClassC1Ev
__ZN14IOPMrootDomain9MetaClassC2Ev
__ZN14IOPMrootDomain9constructEv
__ZN14IOPMrootDomain9metaClassE
__ZN14IOPMrootDomainC1EPK11OSMetaClass
__ZN14IOPMrootDomainC1Ev
__ZN14IOPMrootDomainC2EPK11OSMetaClass
__ZN14IOPMrootDomainC2Ev
__ZN14IOPMrootDomainD0Ev
__ZN14IOPMrootDomainD2Ev
__ZN15IOConditionLock10gMetaClassE
__ZN15IOConditionLock10superClassE
__ZN15IOConditionLock10unlockWithEi
__ZN15IOConditionLock12setConditionEi
__ZN15IOConditionLock13withConditionEib
__ZN15IOConditionLock17initWithConditionEib
__ZN15IOConditionLock4freeEv
__ZN15IOConditionLock4lockEv
__ZN15IOConditionLock6unlockEv
__ZN15IOConditionLock7tryLockEv
__ZN15IOConditionLock8lockWhenEi
__ZN15IOConditionLock9MetaClassC1Ev
__ZN15IOConditionLock9MetaClassC2Ev
__ZN15IOConditionLock9metaClassE
__ZN15IOConditionLockC1EPK11OSMetaClass
__ZN15IOConditionLockC1Ev
__ZN15IOConditionLockC2EPK11OSMetaClass
__ZN15IOConditionLockC2Ev
__ZN15IOConditionLockD0Ev
__ZN15IOConditionLockD2Ev
__ZN15IOPMPowerSource10cycleCountEv
__ZN15IOPMPowerSource10gMetaClassE
__ZN15IOPMPowerSource10isChargingEv
__ZN15IOPMPowerSource10setVoltageEj
__ZN15IOPMPowerSource10superClassE
__ZN15IOPMPowerSource11adapterInfoEv
__ZN15IOPMPowerSource11atWarnLevelEv
__ZN15IOPMPowerSource11maxCapacityEv
__ZN15IOPMPowerSource11powerSourceEv
__ZN15IOPMPowerSource11setAmperageEi
__ZN15IOPMPowerSource11setLocationEi
__ZN15IOPMPowerSource12manufacturerEv
__ZN15IOPMPowerSource12updateStatusEv
__ZN15IOPMPowerSource13setCycleCountEj
__ZN15IOPMPowerSource13setIsChargingEb
__ZN15IOPMPowerSource13timeRemainingEv
__ZN15IOPMPowerSource14errorConditionEv
__ZN15IOPMPowerSource14setAdapterInfoEi
__ZN15IOPMPowerSource14setAtWarnLevelEb
__ZN15IOPMPowerSource14setMaxCapacityEj
__ZN15IOPMPowerSource15atCriticalLevelEv
__ZN15IOPMPowerSource15currentCapacityEv
__ZN15IOPMPowerSource15setManufacturerEP8OSSymbol
__ZN15IOPMPowerSource16batteryInstalledEv
__ZN15IOPMPowerSource16setTimeRemainingEi
__ZN15IOPMPowerSource17externalConnectedEv
__ZN15IOPMPowerSource17setErrorConditionEP8OSSymbol
__ZN15IOPMPowerSource18setAtCriticalLevelEb
__ZN15IOPMPowerSource18setCurrentCapacityEj
__ZN15IOPMPowerSource19legacyIOBatteryInfoEv
__ZN15IOPMPowerSource19setBatteryInstalledEb
__ZN15IOPMPowerSource20setExternalConnectedEb
__ZN15IOPMPowerSource21externalChargeCapableEv
__ZN15IOPMPowerSource22setLegacyIOBatteryInfoEP12OSDictionary
__ZN15IOPMPowerSource24capacityPercentRemainingEv
__ZN15IOPMPowerSource24setExternalChargeCapableEb
__ZN15IOPMPowerSource4freeEv
__ZN15IOPMPowerSource4initEv
__ZN15IOPMPowerSource5modelEv
__ZN15IOPMPowerSource6serialEv
__ZN15IOPMPowerSource7voltageEv
__ZN15IOPMPowerSource8amperageEv
__ZN15IOPMPowerSource8locationEv
__ZN15IOPMPowerSource8setModelEP8OSSymbol
__ZN15IOPMPowerSource9MetaClassC1Ev
__ZN15IOPMPowerSource9MetaClassC2Ev
__ZN15IOPMPowerSource9metaClassE
__ZN15IOPMPowerSource9setSerialEP8OSSymbol
__ZN15IOPMPowerSourceC1EPK11OSMetaClass
__ZN15IOPMPowerSourceC1Ev
__ZN15IOPMPowerSourceC2EPK11OSMetaClass
__ZN15IOPMPowerSourceC2Ev
__ZN15IOPMPowerSourceD0Ev
__ZN15IOPMPowerSourceD2Ev
__ZN15IOPMWorkArbiter10gMetaClassE
__ZN15IOPMWorkArbiter10superClassE
__ZN15IOPMWorkArbiter12checkForWorkEv
__ZN15IOPMWorkArbiter13pmWorkArbiterEP14IOPMrootDomain
__ZN15IOPMWorkArbiter28clamshellStateChangeOccurredEj
__ZN15IOPMWorkArbiter4initEP8OSObjectPFvS1_zE
__ZN15IOPMWorkArbiter9MetaClassC1Ev
__ZN15IOPMWorkArbiter9MetaClassC2Ev
__ZN15IOPMWorkArbiter9metaClassE
__ZN15IOPMWorkArbiterC1EPK11OSMetaClass
__ZN15IOPMWorkArbiterC1Ev
__ZN15IOPMWorkArbiterC2EPK11OSMetaClass
__ZN15IOPMWorkArbiterC2Ev
__ZN15IOPMWorkArbiterD0Ev
__ZN15IOPMWorkArbiterD2Ev
__ZN15IOPanicPlatform10gMetaClassE
__ZN15IOPanicPlatform10superClassE
__ZN15IOPanicPlatform5startEP9IOService
__ZN15IOPanicPlatform9MetaClassC1Ev
__ZN15IOPanicPlatform9MetaClassC2Ev
__ZN15IOPanicPlatform9metaClassE
__ZN15IOPanicPlatformC1EPK11OSMetaClass
__ZN15IOPanicPlatformC1Ev
__ZN15IOPanicPlatformC2EPK11OSMetaClass
__ZN15IOPanicPlatformC2Ev
__ZN15IOPanicPlatformD0Ev
__ZN15IOPanicPlatformD2Ev
__ZN15IORegistryEntry10gMetaClassE
__ZN15IORegistryEntry10initializeEv
__ZN15IORegistryEntry10superClassE
__ZN15IORegistryEntry11dealiasPathEPPKcPK15IORegistryPlane
__ZN15IORegistryEntry11detachAboveEPK15IORegistryPlane
__ZN15IORegistryEntry11setLocationEPK8OSSymbolPK15IORegistryPlane
__ZN15IORegistryEntry11setLocationEPKcPK15IORegistryPlane
__ZN15IORegistryEntry11setPropertyEPK8OSStringP8OSObject
__ZN15IORegistryEntry11setPropertyEPK8OSSymbolP8OSObject
__ZN15IORegistryEntry11setPropertyEPKcP8OSObject
__ZN15IORegistryEntry11setPropertyEPKcPvj
__ZN15IORegistryEntry11setPropertyEPKcS1_
__ZN15IORegistryEntry11setPropertyEPKcb
__ZN15IORegistryEntry11setPropertyEPKcyj
__ZN15IORegistryEntry13attachToChildEPS_PK15IORegistryPlane
__ZN15IORegistryEntry13childFromPathEPKcPK15IORegistryPlanePcPi
__ZN15IORegistryEntry13setPropertiesEP8OSObject
__ZN15IORegistryEntry14attachToParentEPS_PK15IORegistryPlane
__ZN15IORegistryEntry14removePropertyEPK8OSString
__ZN15IORegistryEntry14removePropertyEPK8OSSymbol
__ZN15IORegistryEntry14removePropertyEPKc
__ZN15IORegistryEntry15detachFromChildEPS_PK15IORegistryPlane
__ZN15IORegistryEntry15getRegistryRootEv
__ZN15IORegistryEntry16detachFromParentEPS_PK15IORegistryPlane
__ZN15IORegistryEntry16setPropertyTableEP12OSDictionary
__ZN15IORegistryEntry17matchPathLocationEPKcPK15IORegistryPlane
__ZN15IORegistryEntry17runPropertyActionEPFiP8OSObjectPvS2_S2_S2_ES1_S2_S2_S2_S2_
__ZN15IORegistryEntry18getGenerationCountEv
__ZN15IORegistryEntry21getChildFromComponentEPPKcPK15IORegistryPlane
__ZN15IORegistryEntry25_RESERVEDIORegistryEntry6Ev
__ZN15IORegistryEntry25_RESERVEDIORegistryEntry7Ev
__ZN15IORegistryEntry25_RESERVEDIORegistryEntry8Ev
__ZN15IORegistryEntry25_RESERVEDIORegistryEntry9Ev
__ZN15IORegistryEntry26_RESERVEDIORegistryEntry10Ev
__ZN15IORegistryEntry26_RESERVEDIORegistryEntry11Ev
__ZN15IORegistryEntry26_RESERVEDIORegistryEntry12Ev
__ZN15IORegistryEntry26_RESERVEDIORegistryEntry13Ev
__ZN15IORegistryEntry26_RESERVEDIORegistryEntry14Ev
__ZN15IORegistryEntry26_RESERVEDIORegistryEntry15Ev
__ZN15IORegistryEntry26_RESERVEDIORegistryEntry16Ev
__ZN15IORegistryEntry26_RESERVEDIORegistryEntry17Ev
__ZN15IORegistryEntry26_RESERVEDIORegistryEntry18Ev
__ZN15IORegistryEntry26_RESERVEDIORegistryEntry19Ev
__ZN15IORegistryEntry26_RESERVEDIORegistryEntry20Ev
__ZN15IORegistryEntry26_RESERVEDIORegistryEntry21Ev
__ZN15IORegistryEntry26_RESERVEDIORegistryEntry22Ev
__ZN15IORegistryEntry26_RESERVEDIORegistryEntry23Ev
__ZN15IORegistryEntry26_RESERVEDIORegistryEntry24Ev
__ZN15IORegistryEntry26_RESERVEDIORegistryEntry25Ev
__ZN15IORegistryEntry26_RESERVEDIORegistryEntry26Ev
__ZN15IORegistryEntry26_RESERVEDIORegistryEntry27Ev
__ZN15IORegistryEntry26_RESERVEDIORegistryEntry28Ev
__ZN15IORegistryEntry26_RESERVEDIORegistryEntry29Ev
__ZN15IORegistryEntry26_RESERVEDIORegistryEntry30Ev
__ZN15IORegistryEntry26_RESERVEDIORegistryEntry31Ev
__ZN15IORegistryEntry4freeEv
__ZN15IORegistryEntry4initEP12OSDictionary
__ZN15IORegistryEntry4initEPS_PK15IORegistryPlane
__ZN15IORegistryEntry7setNameEPK8OSSymbolPK15IORegistryPlane
__ZN15IORegistryEntry7setNameEPKcPK15IORegistryPlane
__ZN15IORegistryEntry8fromPathEPKcPK15IORegistryPlanePcPiPS_
__ZN15IORegistryEntry8getPlaneEPKc
__ZN15IORegistryEntry9MetaClassC1Ev
__ZN15IORegistryEntry9MetaClassC2Ev
__ZN15IORegistryEntry9detachAllEPK15IORegistryPlane
__ZN15IORegistryEntry9makePlaneEPKc
__ZN15IORegistryEntry9metaClassE
__ZN15IORegistryEntryC1EPK11OSMetaClass
__ZN15IORegistryEntryC1Ev
__ZN15IORegistryEntryC2EPK11OSMetaClass
__ZN15IORegistryEntryC2Ev
__ZN15IORegistryEntryD0Ev
__ZN15IORegistryEntryD2Ev
__ZN15IORegistryPlane10gMetaClassE
__ZN15IORegistryPlane10superClassE
__ZN15IORegistryPlane9MetaClassC1Ev
__ZN15IORegistryPlane9MetaClassC2Ev
__ZN15IORegistryPlane9metaClassE
__ZN15IORegistryPlaneC1EPK11OSMetaClass
__ZN15IORegistryPlaneC1Ev
__ZN15IORegistryPlaneC2EPK11OSMetaClass
__ZN15IORegistryPlaneC2Ev
__ZN15IORegistryPlaneD0Ev
__ZN15IORegistryPlaneD2Ev
__ZN15IOWatchDogTimer10gMetaClassE
__ZN15IOWatchDogTimer10superClassE
__ZN15IOWatchDogTimer13setPropertiesEP8OSObject
__ZN15IOWatchDogTimer25_RESERVEDIOWatchDogTimer0Ev
__ZN15IOWatchDogTimer25_RESERVEDIOWatchDogTimer1Ev
__ZN15IOWatchDogTimer25_RESERVEDIOWatchDogTimer2Ev
__ZN15IOWatchDogTimer25_RESERVEDIOWatchDogTimer3Ev
__ZN15IOWatchDogTimer4stopEP9IOService
__ZN15IOWatchDogTimer5startEP9IOService
__ZN15IOWatchDogTimer9MetaClassC1Ev
__ZN15IOWatchDogTimer9MetaClassC2Ev
__ZN15IOWatchDogTimer9metaClassE
__ZN15IOWatchDogTimerC1EPK11OSMetaClass
__ZN15IOWatchDogTimerC2EPK11OSMetaClass
__ZN15IOWatchDogTimerD0Ev
__ZN15IOWatchDogTimerD2Ev
__ZN15OSMetaClassBase12safeMetaCastEPKS_PK11OSMetaClass
__ZN15OSMetaClassBase13checkTypeInstEPKS_S1_
__ZN15OSMetaClassBase25_RESERVEDOSMetaClassBase3Ev
__ZN15OSMetaClassBase25_RESERVEDOSMetaClassBase4Ev
__ZN15OSMetaClassBase25_RESERVEDOSMetaClassBase5Ev
__ZN15OSMetaClassBase25_RESERVEDOSMetaClassBase6Ev
__ZN15OSMetaClassBase25_RESERVEDOSMetaClassBase7Ev
__ZN15OSMetaClassBaseC1Ev
__ZN15OSMetaClassBaseC2Ev
__ZN15OSMetaClassBaseD0Ev
__ZN15OSMetaClassBaseD2Ev
__ZN15OSMetaClassMetaC1Ev
__ZN15OSMetaClassMetaC2Ev
__ZN15PMSettingObject10gMetaClassE
__ZN15PMSettingObject10superClassE
__ZN15PMSettingObject12setPMSettingEPK8OSSymbolP8OSObject
__ZN15PMSettingObject15pmSettingObjectEP14IOPMrootDomainPFiP8OSObjectPK8OSSymbolS3_mES3_mjPS6_
__ZN15PMSettingObject4freeEv
__ZN15PMSettingObject9MetaClassC1Ev
__ZN15PMSettingObject9MetaClassC2Ev
__ZN15PMSettingObject9metaClassE
__ZN15PMSettingObjectC1EPK11OSMetaClass
__ZN15PMSettingObjectC1Ev
__ZN15PMSettingObjectC2EPK11OSMetaClass
__ZN15PMSettingObjectC2Ev
__ZN15PMSettingObjectD0Ev
__ZN15PMSettingObjectD2Ev
__ZN15_IOConfigThread10gMetaClassE
__ZN15_IOConfigThread10superClassE
__ZN15_IOConfigThread12configThreadEv
__ZN15_IOConfigThread4freeEv
__ZN15_IOConfigThread4mainEPS_
__ZN15_IOConfigThread9MetaClassC1Ev
__ZN15_IOConfigThread9MetaClassC2Ev
__ZN15_IOConfigThread9metaClassE
__ZN15_IOConfigThreadC1EPK11OSMetaClass
__ZN15_IOConfigThreadC1Ev
__ZN15_IOConfigThreadC2EPK11OSMetaClass
__ZN15_IOConfigThreadC2Ev
__ZN15_IOConfigThreadD0Ev
__ZN15_IOConfigThreadD2Ev
__ZN16AppleMacIODevice10gMetaClassE
__ZN16AppleMacIODevice10superClassE
__ZN16AppleMacIODevice12getResourcesEv
__ZN16AppleMacIODevice13matchLocationEP9IOService
__ZN16AppleMacIODevice26_RESERVEDAppleMacIODevice0Ev
__ZN16AppleMacIODevice26_RESERVEDAppleMacIODevice1Ev
__ZN16AppleMacIODevice26_RESERVEDAppleMacIODevice2Ev
__ZN16AppleMacIODevice26_RESERVEDAppleMacIODevice3Ev
__ZN16AppleMacIODevice9MetaClassC1Ev
__ZN16AppleMacIODevice9MetaClassC2Ev
__ZN16AppleMacIODevice9metaClassE
__ZN16AppleMacIODeviceC1EPK11OSMetaClass
__ZN16AppleMacIODeviceC1Ev
__ZN16AppleMacIODeviceC2EPK11OSMetaClass
__ZN16AppleMacIODeviceC2Ev
__ZN16AppleMacIODeviceD0Ev
__ZN16AppleMacIODeviceD2Ev
__ZN16IOKitDiagnostics10gMetaClassE
__ZN16IOKitDiagnostics10superClassE
__ZN16IOKitDiagnostics11diagnosticsEv
__ZN16IOKitDiagnostics12updateOffsetEP12OSDictionarymPKc
__ZN16IOKitDiagnostics9MetaClassC1Ev
__ZN16IOKitDiagnostics9MetaClassC2Ev
__ZN16IOKitDiagnostics9metaClassE
__ZN16IOKitDiagnosticsC1EPK11OSMetaClass
__ZN16IOKitDiagnosticsC1Ev
__ZN16IOKitDiagnosticsC2EPK11OSMetaClass
__ZN16IOKitDiagnosticsC2Ev
__ZN16IOKitDiagnosticsD0Ev
__ZN16IOKitDiagnosticsD2Ev
__ZN16IOPMinformeeList10gMetaClassE
__ZN16IOPMinformeeList10initializeEv
__ZN16IOPMinformeeList10nextInListEP12IOPMinformee
__ZN16IOPMinformeeList10superClassE
__ZN16IOPMinformeeList11firstInListEv
__ZN16IOPMinformeeList13numberOfItemsEv
__ZN16IOPMinformeeList14removeFromListEP9IOService
__ZN16IOPMinformeeList22getSharedRecursiveLockEv
__ZN16IOPMinformeeList4freeEv
__ZN16IOPMinformeeList8findItemEP9IOService
__ZN16IOPMinformeeList9MetaClassC1Ev
__ZN16IOPMinformeeList9MetaClassC2Ev
__ZN16IOPMinformeeList9addToListEP12IOPMinformee
__ZN16IOPMinformeeList9metaClassE
__ZN16IOPMinformeeListC1EPK11OSMetaClass
__ZN16IOPMinformeeListC1Ev
__ZN16IOPMinformeeListC2EPK11OSMetaClass
__ZN16IOPMinformeeListC2Ev
__ZN16IOPMinformeeListD0Ev
__ZN16IOPMinformeeListD2Ev
__ZN16IOPlatformDevice10gMetaClassE
__ZN16IOPlatformDevice10superClassE
__ZN16IOPlatformDevice12getResourcesEv
__ZN16IOPlatformDevice13matchLocationEP9IOService
__ZN16IOPlatformDevice26_RESERVEDIOPlatformDevice0Ev
__ZN16IOPlatformDevice26_RESERVEDIOPlatformDevice1Ev
__ZN16IOPlatformDevice26_RESERVEDIOPlatformDevice2Ev
__ZN16IOPlatformDevice26_RESERVEDIOPlatformDevice3Ev
__ZN16IOPlatformDevice9MetaClassC1Ev
__ZN16IOPlatformDevice9MetaClassC2Ev
__ZN16IOPlatformDevice9metaClassE
__ZN16IOPlatformDeviceC1EPK11OSMetaClass
__ZN16IOPlatformDeviceC1Ev
__ZN16IOPlatformDeviceC2EPK11OSMetaClass
__ZN16IOPlatformDeviceC2Ev
__ZN16IOPlatformDeviceD0Ev
__ZN16IOPlatformDeviceD2Ev
__ZN16IOPlatformExpert10gMetaClassE
__ZN16IOPlatformExpert10superClassE
__ZN16IOPlatformExpert11haltRestartEj
__ZN16IOPlatformExpert11sleepKernelEv
__ZN16IOPlatformExpert12CheckSubTreeEP7OSArrayP9IOServiceS3_P12OSDictionary
__ZN16IOPlatformExpert12getModelNameEPci
__ZN16IOPlatformExpert12hasPMFeatureEm
__ZN16IOPlatformExpert13savePanicInfoEPhm
__ZN16IOPlatformExpert14getBootROMTypeEv
__ZN16IOPlatformExpert14getChipSetTypeEv
__ZN16IOPlatformExpert14getConsoleInfoEP8PE_Video
__ZN16IOPlatformExpert14getMachineNameEPci
__ZN16IOPlatformExpert14getMachineTypeEv
__ZN16IOPlatformExpert14setBootROMTypeEl
__ZN16IOPlatformExpert14setChipSetTypeEl
__ZN16IOPlatformExpert14setConsoleInfoEP8PE_Videoj
__ZN16IOPlatformExpert14setMachineTypeEl
__ZN16IOPlatformExpert15getGMTTimeOfDayEv
__ZN16IOPlatformExpert15getNubResourcesEP9IOService
__ZN16IOPlatformExpert15setGMTTimeOfDayEl
__ZN16IOPlatformExpert16PMRegisterDeviceEP9IOServiceS1_
__ZN16IOPlatformExpert16atInterruptLevelEv
__ZN16IOPlatformExpert16hasPrivPMFeatureEm
__ZN16IOPlatformExpert20callPlatformFunctionEPK8OSSymbolbPvS3_S3_S3_
__ZN16IOPlatformExpert21RegisterServiceInTreeEP9IOServiceP12OSDictionaryS3_S1_
__ZN16IOPlatformExpert21numBatteriesSupportedEv
__ZN16IOPlatformExpert21platformAdjustServiceEP9IOService
__ZN16IOPlatformExpert23registerNVRAMControllerEP17IONVRAMController
__ZN16IOPlatformExpert25PMInstantiatePowerDomainsEv
__ZN16IOPlatformExpert25getPhysicalRangeAllocatorEv
__ZN16IOPlatformExpert25lookUpInterruptControllerEP8OSSymbol
__ZN16IOPlatformExpert25setCPUInterruptPropertiesEP9IOService
__ZN16IOPlatformExpert26_RESERVEDIOPlatformExpert2Ev
__ZN16IOPlatformExpert26_RESERVEDIOPlatformExpert3Ev
__ZN16IOPlatformExpert26_RESERVEDIOPlatformExpert4Ev
__ZN16IOPlatformExpert26_RESERVEDIOPlatformExpert5Ev
__ZN16IOPlatformExpert26_RESERVEDIOPlatformExpert6Ev
__ZN16IOPlatformExpert26_RESERVEDIOPlatformExpert7Ev
__ZN16IOPlatformExpert26_RESERVEDIOPlatformExpert8Ev
__ZN16IOPlatformExpert26_RESERVEDIOPlatformExpert9Ev
__ZN16IOPlatformExpert27_RESERVEDIOPlatformExpert10Ev
__ZN16IOPlatformExpert27_RESERVEDIOPlatformExpert11Ev
__ZN16IOPlatformExpert27registerInterruptControllerEP8OSSymbolP21IOInterruptController
__ZN16IOPlatformExpert30createSystemSerialNumberStringEP6OSData
__ZN16IOPlatformExpert5PMLogEPKcmmm
__ZN16IOPlatformExpert5startEP9IOService
__ZN16IOPlatformExpert6attachEP9IOService
__ZN16IOPlatformExpert9MetaClassC1Ev
__ZN16IOPlatformExpert9MetaClassC2Ev
__ZN16IOPlatformExpert9configureEP9IOService
__ZN16IOPlatformExpert9createNubEP12OSDictionary
__ZN16IOPlatformExpert9metaClassE
__ZN16IOPlatformExpertC1EPK11OSMetaClass
__ZN16IOPlatformExpertC1Ev
__ZN16IOPlatformExpertC2EPK11OSMetaClass
__ZN16IOPlatformExpertC2Ev
__ZN16IOPlatformExpertD0Ev
__ZN16IOPlatformExpertD2Ev
__ZN16IORangeAllocator10deallocateEmm
__ZN16IORangeAllocator10gMetaClassE
__ZN16IORangeAllocator10superClassE
__ZN16IORangeAllocator12allocElementEm
__ZN16IORangeAllocator12getFreeCountEv
__ZN16IORangeAllocator13allocateRangeEmm
__ZN16IORangeAllocator14deallocElementEm
__ZN16IORangeAllocator16getFragmentCountEv
__ZN16IORangeAllocator19getFragmentCapacityEv
__ZN16IORangeAllocator28setFragmentCapacityIncrementEm
__ZN16IORangeAllocator4freeEv
__ZN16IORangeAllocator4initEmmmm
__ZN16IORangeAllocator8allocateEmPmm
__ZN16IORangeAllocator9MetaClassC1Ev
__ZN16IORangeAllocator9MetaClassC2Ev
__ZN16IORangeAllocator9metaClassE
__ZN16IORangeAllocator9withRangeEmmmm
__ZN16IORangeAllocatorC1EPK11OSMetaClass
__ZN16IORangeAllocatorC1Ev
__ZN16IORangeAllocatorC2EPK11OSMetaClass
__ZN16IORangeAllocatorC2Ev
__ZN16IORangeAllocatorD0Ev
__ZN16IORangeAllocatorD2Ev
__ZN17IOBigMemoryCursor10gMetaClassE
__ZN17IOBigMemoryCursor10superClassE
__ZN17IOBigMemoryCursor13outputSegmentEN14IOMemoryCursor15PhysicalSegmentEPvm
__ZN17IOBigMemoryCursor17withSpecificationEmmm
__ZN17IOBigMemoryCursor21initWithSpecificationEmmm
__ZN17IOBigMemoryCursor9MetaClassC1Ev
__ZN17IOBigMemoryCursor9MetaClassC2Ev
__ZN17IOBigMemoryCursor9metaClassE
__ZN17IOBigMemoryCursorC1EPK11OSMetaClass
__ZN17IOBigMemoryCursorC1Ev
__ZN17IOBigMemoryCursorC2EPK11OSMetaClass
__ZN17IOBigMemoryCursorC2Ev
__ZN17IOBigMemoryCursorD0Ev
__ZN17IOBigMemoryCursorD2Ev
__ZN17IONVRAMController10gMetaClassE
__ZN17IONVRAMController10superClassE
__ZN17IONVRAMController4syncEv
__ZN17IONVRAMController5startEP9IOService
__ZN17IONVRAMController9MetaClassC1Ev
__ZN17IONVRAMController9MetaClassC2Ev
__ZN17IONVRAMController9metaClassE
__ZN17IONVRAMControllerC1EPK11OSMetaClass
__ZN17IONVRAMControllerC2EPK11OSMetaClass
__ZN17IONVRAMControllerD0Ev
__ZN17IONVRAMControllerD2Ev
__ZN17IOPolledInterface10gMetaClassE
__ZN17IOPolledInterface10superClassE
__ZN17IOPolledInterface15checkAllForWorkEv
__ZN17IOPolledInterface27_RESERVEDIOPolledInterface0Ev
__ZN17IOPolledInterface27_RESERVEDIOPolledInterface1Ev
__ZN17IOPolledInterface27_RESERVEDIOPolledInterface2Ev
__ZN17IOPolledInterface27_RESERVEDIOPolledInterface3Ev
__ZN17IOPolledInterface27_RESERVEDIOPolledInterface4Ev
__ZN17IOPolledInterface27_RESERVEDIOPolledInterface5Ev
__ZN17IOPolledInterface27_RESERVEDIOPolledInterface6Ev
__ZN17IOPolledInterface27_RESERVEDIOPolledInterface7Ev
__ZN17IOPolledInterface27_RESERVEDIOPolledInterface8Ev
__ZN17IOPolledInterface27_RESERVEDIOPolledInterface9Ev
__ZN17IOPolledInterface28_RESERVEDIOPolledInterface10Ev
__ZN17IOPolledInterface28_RESERVEDIOPolledInterface11Ev
__ZN17IOPolledInterface28_RESERVEDIOPolledInterface12Ev
__ZN17IOPolledInterface28_RESERVEDIOPolledInterface13Ev
__ZN17IOPolledInterface28_RESERVEDIOPolledInterface14Ev
__ZN17IOPolledInterface28_RESERVEDIOPolledInterface15Ev
__ZN17IOPolledInterface9MetaClassC1Ev
__ZN17IOPolledInterface9MetaClassC2Ev
__ZN17IOPolledInterface9metaClassE
__ZN17IOPolledInterfaceC1EPK11OSMetaClass
__ZN17IOPolledInterfaceC2EPK11OSMetaClass
__ZN17IOPolledInterfaceD0Ev
__ZN17IOPolledInterfaceD2Ev
__ZN17IOPowerConnection10gMetaClassE
__ZN17IOPowerConnection10superClassE
__ZN17IOPowerConnection14getAwaitingAckEv
__ZN17IOPowerConnection14setAwaitingAckEb
__ZN17IOPowerConnection16parentKnowsStateEv
__ZN17IOPowerConnection19setParentKnowsStateEb
__ZN17IOPowerConnection21getDesiredDomainStateEv
__ZN17IOPowerConnection21setDesiredDomainStateEm
__ZN17IOPowerConnection22childHasRequestedPowerEv
__ZN17IOPowerConnection23getPreventIdleSleepFlagEv
__ZN17IOPowerConnection23parentCurrentPowerFlagsEv
__ZN17IOPowerConnection23setPreventIdleSleepFlagEm
__ZN17IOPowerConnection25getPreventSystemSleepFlagEv
__ZN17IOPowerConnection25setChildHasRequestedPowerEv
__ZN17IOPowerConnection25setPreventSystemSleepFlagEm
__ZN17IOPowerConnection26setParentCurrentPowerFlagsEm
__ZN17IOPowerConnection9MetaClassC1Ev
__ZN17IOPowerConnection9MetaClassC2Ev
__ZN17IOPowerConnection9metaClassE
__ZN17IOPowerConnectionC1EPK11OSMetaClass
__ZN17IOPowerConnectionC1Ev
__ZN17IOPowerConnectionC2EPK11OSMetaClass
__ZN17IOPowerConnectionC2Ev
__ZN17IOPowerConnectionD0Ev
__ZN17IOPowerConnectionD2Ev
__ZN18IODTPlatformExpert10createNubsEP9IOServiceP10OSIterator
__ZN18IODTPlatformExpert10gMetaClassE
__ZN18IODTPlatformExpert10superClassE
__ZN18IODTPlatformExpert10writeXPRAMEmPhm
__ZN18IODTPlatformExpert11haltRestartEj
__ZN18IODTPlatformExpert12getModelNameEPci
__ZN18IODTPlatformExpert13savePanicInfoEPhm
__ZN18IODTPlatformExpert14getMachineNameEPci
__ZN18IODTPlatformExpert15getNubResourcesEP9IOService
__ZN18IODTPlatformExpert15processTopLevelEP15IORegistryEntry
__ZN18IODTPlatformExpert17readNVRAMPropertyEP15IORegistryEntryPPK8OSSymbolPP6OSData
__ZN18IODTPlatformExpert18getNVRAMPartitionsEv
__ZN18IODTPlatformExpert18readNVRAMPartitionEPK8OSSymbolmPhm
__ZN18IODTPlatformExpert18writeNVRAMPropertyEP15IORegistryEntryPK8OSSymbolP6OSData
__ZN18IODTPlatformExpert19writeNVRAMPartitionEPK8OSSymbolmPhm
__ZN18IODTPlatformExpert23registerNVRAMControllerEP17IONVRAMController
__ZN18IODTPlatformExpert28_RESERVEDIODTPlatformExpert0Ev
__ZN18IODTPlatformExpert28_RESERVEDIODTPlatformExpert1Ev
__ZN18IODTPlatformExpert28_RESERVEDIODTPlatformExpert2Ev
__ZN18IODTPlatformExpert28_RESERVEDIODTPlatformExpert3Ev
__ZN18IODTPlatformExpert28_RESERVEDIODTPlatformExpert4Ev
__ZN18IODTPlatformExpert28_RESERVEDIODTPlatformExpert5Ev
__ZN18IODTPlatformExpert28_RESERVEDIODTPlatformExpert6Ev
__ZN18IODTPlatformExpert28_RESERVEDIODTPlatformExpert7Ev
__ZN18IODTPlatformExpert30createSystemSerialNumberStringEP6OSData
__ZN18IODTPlatformExpert5probeEP9IOServicePl
__ZN18IODTPlatformExpert9MetaClassC1Ev
__ZN18IODTPlatformExpert9MetaClassC2Ev
__ZN18IODTPlatformExpert9configureEP9IOService
__ZN18IODTPlatformExpert9createNubEP15IORegistryEntry
__ZN18IODTPlatformExpert9metaClassE
__ZN18IODTPlatformExpert9readXPRAMEmPhm
__ZN18IODTPlatformExpertC1EPK11OSMetaClass
__ZN18IODTPlatformExpertC2EPK11OSMetaClass
__ZN18IODTPlatformExpertD0Ev
__ZN18IODTPlatformExpertD2Ev
__ZN18IOMemoryDescriptor10addMappingEP11IOMemoryMap
__ZN18IOMemoryDescriptor10gMetaClassE
__ZN18IOMemoryDescriptor10initializeEv
__ZN18IOMemoryDescriptor10setMappingEP4taskjm
__ZN18IOMemoryDescriptor10superClassE
__ZN18IOMemoryDescriptor10withRangesEP14IOVirtualRangem11IODirectionP4taskb
__ZN18IOMemoryDescriptor10writeBytesEmPKvm
__ZN18IOMemoryDescriptor11handleFaultEPvP6vm_mapjmmm
__ZN18IOMemoryDescriptor11makeMappingEPS_P4taskjmmm
__ZN18IOMemoryDescriptor11withAddressEPvm11IODirection
__ZN18IOMemoryDescriptor11withAddressEjm11IODirectionP4task
__ZN18IOMemoryDescriptor11withOptionsEPvmmP4taskmP8IOMapper
__ZN18IOMemoryDescriptor12setPurgeableEmPm
__ZN18IOMemoryDescriptor12withSubRangeEPS_mm11IODirection
__ZN18IOMemoryDescriptor13removeMappingEP11IOMemoryMap
__ZN18IOMemoryDescriptor15initWithOptionsEPvmmP4taskmP8IOMapper
__ZN18IOMemoryDescriptor16getSourceSegmentEmPm
__ZN18IOMemoryDescriptor16performOperationEmmm
__ZN18IOMemoryDescriptor16withAddressRangeEyymP4task
__ZN18IOMemoryDescriptor17withAddressRangesEP14IOAddressRangemmP4task
__ZN18IOMemoryDescriptor18getPhysicalAddressEv
__ZN18IOMemoryDescriptor18withPhysicalRangesEP15IOPhysicalRangem11IODirectionb
__ZN18IOMemoryDescriptor19withPhysicalAddressEmm11IODirection
__ZN18IOMemoryDescriptor20getPhysicalSegment64EmPm
__ZN18IOMemoryDescriptor28_RESERVEDIOMemoryDescriptor6Ev
__ZN18IOMemoryDescriptor28_RESERVEDIOMemoryDescriptor7Ev
__ZN18IOMemoryDescriptor28_RESERVEDIOMemoryDescriptor8Ev
__ZN18IOMemoryDescriptor28_RESERVEDIOMemoryDescriptor9Ev
__ZN18IOMemoryDescriptor29_RESERVEDIOMemoryDescriptor10Ev
__ZN18IOMemoryDescriptor29_RESERVEDIOMemoryDescriptor11Ev
__ZN18IOMemoryDescriptor29_RESERVEDIOMemoryDescriptor12Ev
__ZN18IOMemoryDescriptor29_RESERVEDIOMemoryDescriptor13Ev
__ZN18IOMemoryDescriptor29_RESERVEDIOMemoryDescriptor14Ev
__ZN18IOMemoryDescriptor29_RESERVEDIOMemoryDescriptor15Ev
__ZN18IOMemoryDescriptor30withPersistentMemoryDescriptorEPS_
__ZN18IOMemoryDescriptor3mapEP4taskjmmm
__ZN18IOMemoryDescriptor3mapEm
__ZN18IOMemoryDescriptor4freeEv
__ZN18IOMemoryDescriptor5doMapEP6vm_mapPjmmm
__ZN18IOMemoryDescriptor6getTagEv
__ZN18IOMemoryDescriptor6setTagEm
__ZN18IOMemoryDescriptor7doUnmapEP6vm_mapjm
__ZN18IOMemoryDescriptor8redirectEP4taskb
__ZN18IOMemoryDescriptor9MetaClassC1Ev
__ZN18IOMemoryDescriptor9MetaClassC2Ev
__ZN18IOMemoryDescriptor9metaClassE
__ZN18IOMemoryDescriptor9readBytesEmPvm
__ZN18IOMemoryDescriptorC1EPK11OSMetaClass
__ZN18IOMemoryDescriptorC2EPK11OSMetaClass
__ZN18IOMemoryDescriptorD0Ev
__ZN18IOMemoryDescriptorD2Ev
__ZN18IOPMchangeNoteList10gMetaClassE
__ZN18IOPMchangeNoteList10initializeEv
__ZN18IOPMchangeNoteList10superClassE
__ZN18IOPMchangeNoteList12latestChangeEv
__ZN18IOPMchangeNoteList13currentChangeEv
__ZN18IOPMchangeNoteList14nextChangeNoteEm
__ZN18IOPMchangeNoteList15changeNoteInUseEm
__ZN18IOPMchangeNoteList16createChangeNoteEv
__ZN18IOPMchangeNoteList18previousChangeNoteEm
__ZN18IOPMchangeNoteList21releaseHeadChangeNoteEv
__ZN18IOPMchangeNoteList21releaseTailChangeNoteEv
__ZN18IOPMchangeNoteList9MetaClassC1Ev
__ZN18IOPMchangeNoteList9MetaClassC2Ev
__ZN18IOPMchangeNoteList9decrementEm
__ZN18IOPMchangeNoteList9incrementEm
__ZN18IOPMchangeNoteList9listEmptyEv
__ZN18IOPMchangeNoteList9metaClassE
__ZN18IOPMchangeNoteListC1EPK11OSMetaClass
__ZN18IOPMchangeNoteListC1Ev
__ZN18IOPMchangeNoteListC2EPK11OSMetaClass
__ZN18IOPMchangeNoteListC2Ev
__ZN18IOPMchangeNoteListD0Ev
__ZN18IOPMchangeNoteListD2Ev
__ZN18IORegistryIterator10enterEntryEPK15IORegistryPlane
__ZN18IORegistryIterator10enterEntryEv
__ZN18IORegistryIterator10gMetaClassE
__ZN18IORegistryIterator10iterateAllEv
__ZN18IORegistryIterator10superClassE
__ZN18IORegistryIterator11iterateOverEP15IORegistryEntryPK15IORegistryPlanem
__ZN18IORegistryIterator11iterateOverEPK15IORegistryPlanem
__ZN18IORegistryIterator13getNextObjectEv
__ZN18IORegistryIterator15getCurrentEntryEv
__ZN18IORegistryIterator17getNextObjectFlatEv
__ZN18IORegistryIterator22getNextObjectRecursiveEv
__ZN18IORegistryIterator4freeEv
__ZN18IORegistryIterator5resetEv
__ZN18IORegistryIterator7isValidEv
__ZN18IORegistryIterator9MetaClassC1Ev
__ZN18IORegistryIterator9MetaClassC2Ev
__ZN18IORegistryIterator9exitEntryEv
__ZN18IORegistryIterator9metaClassE
__ZN18IORegistryIteratorC1EPK11OSMetaClass
__ZN18IORegistryIteratorC1Ev
__ZN18IORegistryIteratorC2EPK11OSMetaClass
__ZN18IORegistryIteratorC2Ev
__ZN18IORegistryIteratorD0Ev
__ZN18IORegistryIteratorD2Ev
__ZN18IOTimerEventSource10gMetaClassE
__ZN18IOTimerEventSource10setTimeoutE12UnsignedWide
__ZN18IOTimerEventSource10setTimeoutE13mach_timespec
__ZN18IOTimerEventSource10setTimeoutEmm
__ZN18IOTimerEventSource10superClassE
__ZN18IOTimerEventSource10wakeAtTimeE12UnsignedWide
__ZN18IOTimerEventSource10wakeAtTimeE13mach_timespec
__ZN18IOTimerEventSource10wakeAtTimeEmm
__ZN18IOTimerEventSource11setWorkLoopEP10IOWorkLoop
__ZN18IOTimerEventSource12checkForWorkEv
__ZN18IOTimerEventSource12setTimeoutMSEm
__ZN18IOTimerEventSource12setTimeoutUSEm
__ZN18IOTimerEventSource12wakeAtTimeMSEm
__ZN18IOTimerEventSource12wakeAtTimeUSEm
__ZN18IOTimerEventSource13cancelTimeoutEv
__ZN18IOTimerEventSource14setTimeoutFuncEv
__ZN18IOTimerEventSource15setTimeoutTicksEm
__ZN18IOTimerEventSource15wakeAtTimeTicksEm
__ZN18IOTimerEventSource16timerEventSourceEP8OSObjectPFvS1_PS_E
__ZN18IOTimerEventSource17timeoutAndReleaseEPvS0_
__ZN18IOTimerEventSource28_RESERVEDIOTimerEventSource0Ev
__ZN18IOTimerEventSource28_RESERVEDIOTimerEventSource1Ev
__ZN18IOTimerEventSource28_RESERVEDIOTimerEventSource2Ev
__ZN18IOTimerEventSource28_RESERVEDIOTimerEventSource3Ev
__ZN18IOTimerEventSource28_RESERVEDIOTimerEventSource4Ev
__ZN18IOTimerEventSource28_RESERVEDIOTimerEventSource5Ev
__ZN18IOTimerEventSource28_RESERVEDIOTimerEventSource6Ev
__ZN18IOTimerEventSource28_RESERVEDIOTimerEventSource7Ev
__ZN18IOTimerEventSource4freeEv
__ZN18IOTimerEventSource4initEP8OSObjectPFvS1_PS_E
__ZN18IOTimerEventSource6enableEv
__ZN18IOTimerEventSource7disableEv
__ZN18IOTimerEventSource7timeoutEPv
__ZN18IOTimerEventSource9MetaClassC1Ev
__ZN18IOTimerEventSource9MetaClassC2Ev
__ZN18IOTimerEventSource9metaClassE
__ZN18IOTimerEventSourceC1EPK11OSMetaClass
__ZN18IOTimerEventSourceC1Ev
__ZN18IOTimerEventSourceC2EPK11OSMetaClass
__ZN18IOTimerEventSourceC2Ev
__ZN18IOTimerEventSourceD0Ev
__ZN18IOTimerEventSourceD2Ev
__ZN18IOUserNotification10gMetaClassE
__ZN18IOUserNotification10superClassE
__ZN18IOUserNotification15setNotificationEP10IONotifier
__ZN18IOUserNotification4freeEv
__ZN18IOUserNotification4initEv
__ZN18IOUserNotification5resetEv
__ZN18IOUserNotification7isValidEv
__ZN18IOUserNotification9MetaClassC1Ev
__ZN18IOUserNotification9MetaClassC2Ev
__ZN18IOUserNotification9metaClassE
__ZN18IOUserNotificationC1EPK11OSMetaClass
__ZN18IOUserNotificationC2EPK11OSMetaClass
__ZN18IOUserNotificationD0Ev
__ZN18IOUserNotificationD2Ev
__ZN18_IOServiceNotifier10gMetaClassE
__ZN18_IOServiceNotifier10superClassE
__ZN18_IOServiceNotifier4freeEv
__ZN18_IOServiceNotifier4waitEv
__ZN18_IOServiceNotifier6enableEb
__ZN18_IOServiceNotifier6removeEv
__ZN18_IOServiceNotifier7disableEv
__ZN18_IOServiceNotifier9MetaClassC1Ev
__ZN18_IOServiceNotifier9MetaClassC2Ev
__ZN18_IOServiceNotifier9metaClassE
__ZN18_IOServiceNotifierC1EPK11OSMetaClass
__ZN18_IOServiceNotifierC1Ev
__ZN18_IOServiceNotifierC2EPK11OSMetaClass
__ZN18_IOServiceNotifierC2Ev
__ZN18_IOServiceNotifierD0Ev
__ZN18_IOServiceNotifierD2Ev
__ZN19ApplePlatformExpert10deleteListEv
__ZN19ApplePlatformExpert10gMetaClassE
__ZN19ApplePlatformExpert10superClassE
__ZN19ApplePlatformExpert11excludeListEv
__ZN19ApplePlatformExpert14getMachineNameEPci
__ZN19ApplePlatformExpert15getGMTTimeOfDayEv
__ZN19ApplePlatformExpert15setGMTTimeOfDayEl
__ZN19ApplePlatformExpert23registerNVRAMControllerEP17IONVRAMController
__ZN19ApplePlatformExpert29_RESERVEDApplePlatformExpert0Ev
__ZN19ApplePlatformExpert29_RESERVEDApplePlatformExpert1Ev
__ZN19ApplePlatformExpert29_RESERVEDApplePlatformExpert2Ev
__ZN19ApplePlatformExpert29_RESERVEDApplePlatformExpert3Ev
__ZN19ApplePlatformExpert5startEP9IOService
__ZN19ApplePlatformExpert9MetaClassC1Ev
__ZN19ApplePlatformExpert9MetaClassC2Ev
__ZN19ApplePlatformExpert9configureEP9IOService
__ZN19ApplePlatformExpert9metaClassE
__ZN19ApplePlatformExpertC1EPK11OSMetaClass
__ZN19ApplePlatformExpertC2EPK11OSMetaClass
__ZN19ApplePlatformExpertD0Ev
__ZN19ApplePlatformExpertD2Ev
__ZN19IODBDMAMemoryCursor10gMetaClassE
__ZN19IODBDMAMemoryCursor10superClassE
__ZN19IODBDMAMemoryCursor13outputSegmentEN14IOMemoryCursor15PhysicalSegmentEPvm
__ZN19IODBDMAMemoryCursor17withSpecificationEmmm
__ZN19IODBDMAMemoryCursor21initWithSpecificationEmmm
__ZN19IODBDMAMemoryCursor9MetaClassC1Ev
__ZN19IODBDMAMemoryCursor9MetaClassC2Ev
__ZN19IODBDMAMemoryCursor9metaClassE
__ZN19IODBDMAMemoryCursorC1EPK11OSMetaClass
__ZN19IODBDMAMemoryCursorC1Ev
__ZN19IODBDMAMemoryCursorC2EPK11OSMetaClass
__ZN19IODBDMAMemoryCursorC2Ev
__ZN19IODBDMAMemoryCursorD0Ev
__ZN19IODBDMAMemoryCursorD2Ev
__ZN19IOPMPowerSourceList10gMetaClassE
__ZN19IOPMPowerSourceList10initializeEv
__ZN19IOPMPowerSourceList10nextInListEP15IOPMPowerSource
__ZN19IOPMPowerSourceList10superClassE
__ZN19IOPMPowerSourceList11firstInListEv
__ZN19IOPMPowerSourceList13numberOfItemsEv
__ZN19IOPMPowerSourceList14removeFromListEP15IOPMPowerSource
__ZN19IOPMPowerSourceList4freeEv
__ZN19IOPMPowerSourceList9MetaClassC1Ev
__ZN19IOPMPowerSourceList9MetaClassC2Ev
__ZN19IOPMPowerSourceList9addToListEP15IOPMPowerSource
__ZN19IOPMPowerSourceList9metaClassE
__ZN19IOPMPowerSourceListC1EPK11OSMetaClass
__ZN19IOPMPowerSourceListC1Ev
__ZN19IOPMPowerSourceListC2EPK11OSMetaClass
__ZN19IOPMPowerSourceListC2Ev
__ZN19IOPMPowerSourceListD0Ev
__ZN19IOPMPowerSourceListD2Ev
__ZN19IOPMPowerStateQueue10gMetaClassE
__ZN19IOPMPowerStateQueue10superClassE
__ZN19IOPMPowerStateQueue12checkForWorkEv
__ZN19IOPMPowerStateQueue14unIdleOccurredEP9IOServicem
__ZN19IOPMPowerStateQueue17PMPowerStateQueueEP8OSObject
__ZN19IOPMPowerStateQueue4initEP8OSObjectPFvS1_zE
__ZN19IOPMPowerStateQueue9MetaClassC1Ev
__ZN19IOPMPowerStateQueue9MetaClassC2Ev
__ZN19IOPMPowerStateQueue9metaClassE
__ZN19IOPMPowerStateQueueC1EPK11OSMetaClass
__ZN19IOPMPowerStateQueueC1Ev
__ZN19IOPMPowerStateQueueC2EPK11OSMetaClass
__ZN19IOPMPowerStateQueueC2Ev
__ZN19IOPMPowerStateQueueD0Ev
__ZN19IOPMPowerStateQueueD2Ev
__ZN20IOLittleMemoryCursor10gMetaClassE
__ZN20IOLittleMemoryCursor10superClassE
__ZN20IOLittleMemoryCursor13outputSegmentEN14IOMemoryCursor15PhysicalSegmentEPvm
__ZN20IOLittleMemoryCursor17withSpecificationEmmm
__ZN20IOLittleMemoryCursor21initWithSpecificationEmmm
__ZN20IOLittleMemoryCursor9MetaClassC1Ev
__ZN20IOLittleMemoryCursor9MetaClassC2Ev
__ZN20IOLittleMemoryCursor9metaClassE
__ZN20IOLittleMemoryCursorC1EPK11OSMetaClass
__ZN20IOLittleMemoryCursorC1Ev
__ZN20IOLittleMemoryCursorC2EPK11OSMetaClass
__ZN20IOLittleMemoryCursorC2Ev
__ZN20IOLittleMemoryCursorD0Ev
__ZN20IOLittleMemoryCursorD2Ev
__ZN20OSCollectionIterator10gMetaClassE
__ZN20OSCollectionIterator10superClassE
__ZN20OSCollectionIterator13getNextObjectEv
__ZN20OSCollectionIterator14withCollectionEPK12OSCollection
__ZN20OSCollectionIterator18initWithCollectionEPK12OSCollection
__ZN20OSCollectionIterator4freeEv
__ZN20OSCollectionIterator5resetEv
__ZN20OSCollectionIterator7isValidEv
__ZN20OSCollectionIterator9MetaClassC1Ev
__ZN20OSCollectionIterator9MetaClassC2Ev
__ZN20OSCollectionIterator9metaClassE
__ZN20OSCollectionIteratorC1EPK11OSMetaClass
__ZN20OSCollectionIteratorC1Ev
__ZN20OSCollectionIteratorC2EPK11OSMetaClass
__ZN20OSCollectionIteratorC2Ev
__ZN20OSCollectionIteratorD0Ev
__ZN20OSCollectionIteratorD2Ev
__ZN20RootDomainUserClient10gMetaClassE
__ZN20RootDomainUserClient10superClassE
__ZN20RootDomainUserClient11clientCloseEv
__ZN20RootDomainUserClient12initWithTaskEP4taskPvmP12OSDictionary
__ZN20RootDomainUserClient15setPreventativeEmm
__ZN20RootDomainUserClient17secureSleepSystemEPi
__ZN20RootDomainUserClient23secureSetAggressivenessEmmPi
__ZN20RootDomainUserClient26getTargetAndMethodForIndexEPP9IOServicem
__ZN20RootDomainUserClient5startEP9IOService
__ZN20RootDomainUserClient9MetaClassC1Ev
__ZN20RootDomainUserClient9MetaClassC2Ev
__ZN20RootDomainUserClient9metaClassE
__ZN20RootDomainUserClientC1EPK11OSMetaClass
__ZN20RootDomainUserClientC1Ev
__ZN20RootDomainUserClientC2EPK11OSMetaClass
__ZN20RootDomainUserClientC2Ev
__ZN20RootDomainUserClientD0Ev
__ZN20RootDomainUserClientD2Ev
__ZN21IOInterruptController10gMetaClassE
__ZN21IOInterruptController10initVectorElP17IOInterruptVector
__ZN21IOInterruptController10superClassE
__ZN21IOInterruptController11causeVectorElP17IOInterruptVector
__ZN21IOInterruptController12enableVectorElP17IOInterruptVector
__ZN21IOInterruptController13getVectorTypeElP17IOInterruptVector
__ZN21IOInterruptController14causeInterruptEP9IOServicei
__ZN21IOInterruptController15enableInterruptEP9IOServicei
__ZN21IOInterruptController15handleInterruptEPvP9IOServicei
__ZN21IOInterruptController16disableInterruptEP9IOServicei
__ZN21IOInterruptController16getInterruptTypeEP9IOServiceiPi
__ZN21IOInterruptController17disableVectorHardElP17IOInterruptVector
__ZN21IOInterruptController17registerInterruptEP9IOServiceiPvPFvS2_S2_S2_iES2_
__ZN21IOInterruptController17vectorCanBeSharedElP17IOInterruptVector
__ZN21IOInterruptController19unregisterInterruptEP9IOServicei
__ZN21IOInterruptController26getInterruptHandlerAddressEv
__ZN21IOInterruptController31_RESERVEDIOInterruptController0Ev
__ZN21IOInterruptController31_RESERVEDIOInterruptController1Ev
__ZN21IOInterruptController31_RESERVEDIOInterruptController2Ev
__ZN21IOInterruptController31_RESERVEDIOInterruptController3Ev
__ZN21IOInterruptController31_RESERVEDIOInterruptController4Ev
__ZN21IOInterruptController31_RESERVEDIOInterruptController5Ev
__ZN21IOInterruptController9MetaClassC1Ev
__ZN21IOInterruptController9MetaClassC2Ev
__ZN21IOInterruptController9metaClassE
__ZN21IOInterruptControllerC1EPK11OSMetaClass
__ZN21IOInterruptControllerC2EPK11OSMetaClass
__ZN21IOInterruptControllerD0Ev
__ZN21IOInterruptControllerD2Ev
__ZN21IONaturalMemoryCursor10gMetaClassE
__ZN21IONaturalMemoryCursor10superClassE
__ZN21IONaturalMemoryCursor13outputSegmentEN14IOMemoryCursor15PhysicalSegmentEPvm
__ZN21IONaturalMemoryCursor17withSpecificationEmmm
__ZN21IONaturalMemoryCursor21initWithSpecificationEmmm
__ZN21IONaturalMemoryCursor9MetaClassC1Ev
__ZN21IONaturalMemoryCursor9MetaClassC2Ev
__ZN21IONaturalMemoryCursor9metaClassE
__ZN21IONaturalMemoryCursorC1EPK11OSMetaClass
__ZN21IONaturalMemoryCursorC1Ev
__ZN21IONaturalMemoryCursorC2EPK11OSMetaClass
__ZN21IONaturalMemoryCursorC2Ev
__ZN21IONaturalMemoryCursorD0Ev
__ZN21IONaturalMemoryCursorD2Ev
__ZN21IOSubMemoryDescriptor10gMetaClassE
__ZN21IOSubMemoryDescriptor10superClassE
__ZN21IOSubMemoryDescriptor10writeBytesEmPKvm
__ZN21IOSubMemoryDescriptor11makeMappingEP18IOMemoryDescriptorP4taskjmmm
__ZN21IOSubMemoryDescriptor12initSubRangeEP18IOMemoryDescriptormm11IODirection
__ZN21IOSubMemoryDescriptor12setPurgeableEmPm
__ZN21IOSubMemoryDescriptor14initWithRangesEP14IOVirtualRangem11IODirectionP4taskb
__ZN21IOSubMemoryDescriptor15initWithAddressEPvm11IODirection
__ZN21IOSubMemoryDescriptor15initWithAddressEjm11IODirectionP4task
__ZN21IOSubMemoryDescriptor16getSourceSegmentEmPm
__ZN21IOSubMemoryDescriptor16performOperationEmmm
__ZN21IOSubMemoryDescriptor17getVirtualSegmentEmPm
__ZN21IOSubMemoryDescriptor18getPhysicalSegmentEmPm
__ZN21IOSubMemoryDescriptor20getPhysicalSegment64EmPm
__ZN21IOSubMemoryDescriptor22initWithPhysicalRangesEP15IOPhysicalRangem11IODirectionb
__ZN21IOSubMemoryDescriptor23initWithPhysicalAddressEmm11IODirection
__ZN21IOSubMemoryDescriptor4freeEv
__ZN21IOSubMemoryDescriptor5doMapEP6vm_mapPjmmm
__ZN21IOSubMemoryDescriptor7prepareE11IODirection
__ZN21IOSubMemoryDescriptor8completeE11IODirection
__ZN21IOSubMemoryDescriptor8redirectEP4taskb
__ZN21IOSubMemoryDescriptor9MetaClassC1Ev
__ZN21IOSubMemoryDescriptor9MetaClassC2Ev
__ZN21IOSubMemoryDescriptor9metaClassE
__ZN21IOSubMemoryDescriptor9readBytesEmPvm
__ZN21IOSubMemoryDescriptorC1EPK11OSMetaClass
__ZN21IOSubMemoryDescriptorC1Ev
__ZN21IOSubMemoryDescriptorC2EPK11OSMetaClass
__ZN21IOSubMemoryDescriptorC2Ev
__ZN21IOSubMemoryDescriptorD0Ev
__ZN21IOSubMemoryDescriptorD2Ev
__ZN22IOInterruptEventSource10gMetaClassE
__ZN22IOInterruptEventSource10superClassE
__ZN22IOInterruptEventSource12checkForWorkEv
__ZN22IOInterruptEventSource17interruptOccurredEPvP9IOServicei
__ZN22IOInterruptEventSource20interruptEventSourceEP8OSObjectPFvS1_PS_iEP9IOServicei
__ZN22IOInterruptEventSource23normalInterruptOccurredEPvP9IOServicei
__ZN22IOInterruptEventSource24disableInterruptOccurredEPvP9IOServicei
__ZN22IOInterruptEventSource32_RESERVEDIOInterruptEventSource0Ev
__ZN22IOInterruptEventSource32_RESERVEDIOInterruptEventSource1Ev
__ZN22IOInterruptEventSource32_RESERVEDIOInterruptEventSource2Ev
__ZN22IOInterruptEventSource32_RESERVEDIOInterruptEventSource3Ev
__ZN22IOInterruptEventSource32_RESERVEDIOInterruptEventSource4Ev
__ZN22IOInterruptEventSource32_RESERVEDIOInterruptEventSource5Ev
__ZN22IOInterruptEventSource32_RESERVEDIOInterruptEventSource6Ev
__ZN22IOInterruptEventSource32_RESERVEDIOInterruptEventSource7Ev
__ZN22IOInterruptEventSource4freeEv
__ZN22IOInterruptEventSource4initEP8OSObjectPFvS1_PS_iEP9IOServicei
__ZN22IOInterruptEventSource6enableEv
__ZN22IOInterruptEventSource7disableEv
__ZN22IOInterruptEventSource9MetaClassC1Ev
__ZN22IOInterruptEventSource9MetaClassC2Ev
__ZN22IOInterruptEventSource9metaClassE
__ZN22IOInterruptEventSourceC1EPK11OSMetaClass
__ZN22IOInterruptEventSourceC1Ev
__ZN22IOInterruptEventSourceC2EPK11OSMetaClass
__ZN22IOInterruptEventSourceC2Ev
__ZN22IOInterruptEventSourceD0Ev
__ZN22IOInterruptEventSourceD2Ev
__ZN22IOPlatformExpertDevice10gMetaClassE
__ZN22IOPlatformExpertDevice10superClassE
__ZN22IOPlatformExpertDevice12initWithArgsEPvS0_S0_S0_
__ZN22IOPlatformExpertDevice13attachToChildEP15IORegistryEntryPK15IORegistryPlane
__ZN22IOPlatformExpertDevice32_RESERVEDIOPlatformExpertDevice0Ev
__ZN22IOPlatformExpertDevice32_RESERVEDIOPlatformExpertDevice1Ev
__ZN22IOPlatformExpertDevice32_RESERVEDIOPlatformExpertDevice2Ev
__ZN22IOPlatformExpertDevice32_RESERVEDIOPlatformExpertDevice3Ev
__ZN22IOPlatformExpertDevice4freeEv
__ZN22IOPlatformExpertDevice9MetaClassC1Ev
__ZN22IOPlatformExpertDevice9MetaClassC2Ev
__ZN22IOPlatformExpertDevice9metaClassE
__ZN22IOPlatformExpertDeviceC1EPK11OSMetaClass
__ZN22IOPlatformExpertDeviceC1Ev
__ZN22IOPlatformExpertDeviceC2EPK11OSMetaClass
__ZN22IOPlatformExpertDeviceC2Ev
__ZN22IOPlatformExpertDeviceD0Ev
__ZN22IOPlatformExpertDeviceD2Ev
__ZN22_IOOpenServiceIterator10gMetaClassE
__ZN22_IOOpenServiceIterator10superClassE
__ZN22_IOOpenServiceIterator13getNextObjectEv
__ZN22_IOOpenServiceIterator4freeEv
__ZN22_IOOpenServiceIterator5resetEv
__ZN22_IOOpenServiceIterator7isValidEv
__ZN22_IOOpenServiceIterator8iteratorEP10OSIteratorPK9IOServiceS4_
__ZN22_IOOpenServiceIterator9MetaClassC1Ev
__ZN22_IOOpenServiceIterator9MetaClassC2Ev
__ZN22_IOOpenServiceIterator9metaClassE
__ZN22_IOOpenServiceIteratorC1EPK11OSMetaClass
__ZN22_IOOpenServiceIteratorC1Ev
__ZN22_IOOpenServiceIteratorC2EPK11OSMetaClass
__ZN22_IOOpenServiceIteratorC2Ev
__ZN22_IOOpenServiceIteratorD0Ev
__ZN22_IOOpenServiceIteratorD2Ev
__ZN23IOMultiMemoryDescriptor10gMetaClassE
__ZN23IOMultiMemoryDescriptor10superClassE
__ZN23IOMultiMemoryDescriptor10writeBytesEmPKvm
__ZN23IOMultiMemoryDescriptor14initWithRangesEP14IOVirtualRangem11IODirectionP4taskb
__ZN23IOMultiMemoryDescriptor15initWithAddressEPvm11IODirection
__ZN23IOMultiMemoryDescriptor15initWithAddressEjm11IODirectionP4task
__ZN23IOMultiMemoryDescriptor15withDescriptorsEPP18IOMemoryDescriptorm11IODirectionb
__ZN23IOMultiMemoryDescriptor16getSourceSegmentEmPm
__ZN23IOMultiMemoryDescriptor17getVirtualSegmentEmPm
__ZN23IOMultiMemoryDescriptor18getPhysicalSegmentEmPm
__ZN23IOMultiMemoryDescriptor19initWithDescriptorsEPP18IOMemoryDescriptorm11IODirectionb
__ZN23IOMultiMemoryDescriptor20getPhysicalSegment64EmPm
__ZN23IOMultiMemoryDescriptor22initWithPhysicalRangesEP15IOPhysicalRangem11IODirectionb
__ZN23IOMultiMemoryDescriptor23initWithPhysicalAddressEmm11IODirection
__ZN23IOMultiMemoryDescriptor4freeEv
__ZN23IOMultiMemoryDescriptor7prepareE11IODirection
__ZN23IOMultiMemoryDescriptor8completeE11IODirection
__ZN23IOMultiMemoryDescriptor9MetaClassC1Ev
__ZN23IOMultiMemoryDescriptor9MetaClassC2Ev
__ZN23IOMultiMemoryDescriptor9metaClassE
__ZN23IOMultiMemoryDescriptor9readBytesEmPvm
__ZN23IOMultiMemoryDescriptorC1EPK11OSMetaClass
__ZN23IOMultiMemoryDescriptorC1Ev
__ZN23IOMultiMemoryDescriptorC2EPK11OSMetaClass
__ZN23IOMultiMemoryDescriptorC2Ev
__ZN23IOMultiMemoryDescriptorD0Ev
__ZN23IOMultiMemoryDescriptorD2Ev
__ZN24IOBufferMemoryDescriptor10gMetaClassE
__ZN24IOBufferMemoryDescriptor10superClassE
__ZN24IOBufferMemoryDescriptor11appendBytesEPKvj
__ZN24IOBufferMemoryDescriptor11withOptionsEmjj
__ZN24IOBufferMemoryDescriptor12setDirectionE11IODirection
__ZN24IOBufferMemoryDescriptor12withCapacityEj11IODirectionb
__ZN24IOBufferMemoryDescriptor13initWithBytesEPKvj11IODirectionb
__ZN24IOBufferMemoryDescriptor14getBytesNoCopyEjj
__ZN24IOBufferMemoryDescriptor14getBytesNoCopyEv
__ZN24IOBufferMemoryDescriptor14initWithRangesEP14IOVirtualRangem11IODirectionP4taskb
__ZN24IOBufferMemoryDescriptor15initWithAddressEPvm11IODirection
__ZN24IOBufferMemoryDescriptor15initWithAddressEjm11IODirectionP4task
__ZN24IOBufferMemoryDescriptor15initWithOptionsEmjj
__ZN24IOBufferMemoryDescriptor15initWithOptionsEmjjP4task
__ZN24IOBufferMemoryDescriptor17getVirtualSegmentEmPm
__ZN24IOBufferMemoryDescriptor17inTaskWithOptionsEP4taskmjj
__ZN24IOBufferMemoryDescriptor20initWithPhysicalMaskEP4taskmyyy
__ZN24IOBufferMemoryDescriptor22inTaskWithPhysicalMaskEP4taskmyy
__ZN24IOBufferMemoryDescriptor22initWithPhysicalRangesEP15IOPhysicalRangem11IODirectionb
__ZN24IOBufferMemoryDescriptor23initWithPhysicalAddressEmm11IODirection
__ZN24IOBufferMemoryDescriptor34_RESERVEDIOBufferMemoryDescriptor2Ev
__ZN24IOBufferMemoryDescriptor34_RESERVEDIOBufferMemoryDescriptor3Ev
__ZN24IOBufferMemoryDescriptor34_RESERVEDIOBufferMemoryDescriptor4Ev
__ZN24IOBufferMemoryDescriptor34_RESERVEDIOBufferMemoryDescriptor5Ev
__ZN24IOBufferMemoryDescriptor34_RESERVEDIOBufferMemoryDescriptor6Ev
__ZN24IOBufferMemoryDescriptor34_RESERVEDIOBufferMemoryDescriptor7Ev
__ZN24IOBufferMemoryDescriptor34_RESERVEDIOBufferMemoryDescriptor8Ev
__ZN24IOBufferMemoryDescriptor34_RESERVEDIOBufferMemoryDescriptor9Ev
__ZN24IOBufferMemoryDescriptor35_RESERVEDIOBufferMemoryDescriptor10Ev
__ZN24IOBufferMemoryDescriptor35_RESERVEDIOBufferMemoryDescriptor11Ev
__ZN24IOBufferMemoryDescriptor35_RESERVEDIOBufferMemoryDescriptor12Ev
__ZN24IOBufferMemoryDescriptor35_RESERVEDIOBufferMemoryDescriptor13Ev
__ZN24IOBufferMemoryDescriptor35_RESERVEDIOBufferMemoryDescriptor14Ev
__ZN24IOBufferMemoryDescriptor35_RESERVEDIOBufferMemoryDescriptor15Ev
__ZN24IOBufferMemoryDescriptor4freeEv
__ZN24IOBufferMemoryDescriptor9MetaClassC1Ev
__ZN24IOBufferMemoryDescriptor9MetaClassC2Ev
__ZN24IOBufferMemoryDescriptor9metaClassE
__ZN24IOBufferMemoryDescriptor9setLengthEj
__ZN24IOBufferMemoryDescriptor9withBytesEPKvj11IODirectionb
__ZN24IOBufferMemoryDescriptorC1EPK11OSMetaClass
__ZN24IOBufferMemoryDescriptorC1Ev
__ZN24IOBufferMemoryDescriptorC2EPK11OSMetaClass
__ZN24IOBufferMemoryDescriptorC2Ev
__ZN24IOBufferMemoryDescriptorD0Ev
__ZN24IOBufferMemoryDescriptorD2Ev
__ZN24IOCPUInterruptController10gMetaClassE
__ZN24IOCPUInterruptController10superClassE
__ZN24IOCPUInterruptController14causeInterruptEP9IOServicei
__ZN24IOCPUInterruptController15enableInterruptEP9IOServicei
__ZN24IOCPUInterruptController15handleInterruptEPvP9IOServicei
__ZN24IOCPUInterruptController16disableInterruptEP9IOServicei
__ZN24IOCPUInterruptController16getInterruptTypeEP9IOServiceiPi
__ZN24IOCPUInterruptController17registerInterruptEP9IOServiceiPvPFvS2_S2_S2_iES2_
__ZN24IOCPUInterruptController18enableCPUInterruptEP5IOCPU
__ZN24IOCPUInterruptController25setCPUInterruptPropertiesEP9IOService
__ZN24IOCPUInterruptController26initCPUInterruptControllerEi
__ZN24IOCPUInterruptController30registerCPUInterruptControllerEv
__ZN24IOCPUInterruptController34_RESERVEDIOCPUInterruptController0Ev
__ZN24IOCPUInterruptController34_RESERVEDIOCPUInterruptController1Ev
__ZN24IOCPUInterruptController34_RESERVEDIOCPUInterruptController2Ev
__ZN24IOCPUInterruptController34_RESERVEDIOCPUInterruptController3Ev
__ZN24IOCPUInterruptController34_RESERVEDIOCPUInterruptController4Ev
__ZN24IOCPUInterruptController34_RESERVEDIOCPUInterruptController5Ev
__ZN24IOCPUInterruptController9MetaClassC1Ev
__ZN24IOCPUInterruptController9MetaClassC2Ev
__ZN24IOCPUInterruptController9metaClassE
__ZN24IOCPUInterruptControllerC1EPK11OSMetaClass
__ZN24IOCPUInterruptControllerC1Ev
__ZN24IOCPUInterruptControllerC2EPK11OSMetaClass
__ZN24IOCPUInterruptControllerC2Ev
__ZN24IOCPUInterruptControllerD0Ev
__ZN24IOCPUInterruptControllerD2Ev
__ZN25IOGeneralMemoryDescriptor10gMetaClassE
__ZN25IOGeneralMemoryDescriptor10superClassE
__ZN25IOGeneralMemoryDescriptor11setPositionEm
__ZN25IOGeneralMemoryDescriptor11wireVirtualE11IODirection
__ZN25IOGeneralMemoryDescriptor13mapIntoKernelEj
__ZN25IOGeneralMemoryDescriptor14initWithRangesEP14IOVirtualRangem11IODirectionP4taskb
__ZN25IOGeneralMemoryDescriptor15initWithAddressEPvm11IODirection
__ZN25IOGeneralMemoryDescriptor15initWithAddressEjm11IODirectionP4task
__ZN25IOGeneralMemoryDescriptor15initWithOptionsEPvmmP4taskmP8IOMapper
__ZN25IOGeneralMemoryDescriptor15unmapFromKernelEv
__ZN25IOGeneralMemoryDescriptor16createNamedEntryEv
__ZN25IOGeneralMemoryDescriptor16getSourceSegmentEmPm
__ZN25IOGeneralMemoryDescriptor17getVirtualSegmentEmPm
__ZN25IOGeneralMemoryDescriptor18getPhysicalSegmentEmPm
__ZN25IOGeneralMemoryDescriptor20getPhysicalSegment64EmPm
__ZN25IOGeneralMemoryDescriptor22initWithPhysicalRangesEP15IOPhysicalRangem11IODirectionb
__ZN25IOGeneralMemoryDescriptor23initWithPhysicalAddressEmm11IODirection
__ZN25IOGeneralMemoryDescriptor30withPersistentMemoryDescriptorEPS_
__ZN25IOGeneralMemoryDescriptor4freeEv
__ZN25IOGeneralMemoryDescriptor5doMapEP6vm_mapPjmmm
__ZN25IOGeneralMemoryDescriptor7doUnmapEP6vm_mapjm
__ZN25IOGeneralMemoryDescriptor7prepareE11IODirection
__ZN25IOGeneralMemoryDescriptor8completeE11IODirection
__ZN25IOGeneralMemoryDescriptor9MetaClassC1Ev
__ZN25IOGeneralMemoryDescriptor9MetaClassC2Ev
__ZN25IOGeneralMemoryDescriptor9metaClassE
__ZN25IOGeneralMemoryDescriptorC1EPK11OSMetaClass
__ZN25IOGeneralMemoryDescriptorC1Ev
__ZN25IOGeneralMemoryDescriptorC2EPK11OSMetaClass
__ZN25IOGeneralMemoryDescriptorC2Ev
__ZN25IOGeneralMemoryDescriptorD0Ev
__ZN25IOGeneralMemoryDescriptorD2Ev
__ZN25IOServiceUserNotification10gMetaClassE
__ZN25IOServiceUserNotification10superClassE
__ZN25IOServiceUserNotification13getNextObjectEv
__ZN25IOServiceUserNotification4freeEv
__ZN25IOServiceUserNotification4initEP8ipc_portjPj
__ZN25IOServiceUserNotification7handlerEPvP9IOService
__ZN25IOServiceUserNotification8_handlerEPvS0_P9IOService
__ZN25IOServiceUserNotification9MetaClassC1Ev
__ZN25IOServiceUserNotification9MetaClassC2Ev
__ZN25IOServiceUserNotification9metaClassE
__ZN25IOServiceUserNotificationC1EPK11OSMetaClass
__ZN25IOServiceUserNotificationC1Ev
__ZN25IOServiceUserNotificationC2EPK11OSMetaClass
__ZN25IOServiceUserNotificationC2Ev
__ZN25IOServiceUserNotificationD0Ev
__ZN25IOServiceUserNotificationD2Ev
__ZN26_IOServiceInterestNotifier10gMetaClassE
__ZN26_IOServiceInterestNotifier10superClassE
__ZN26_IOServiceInterestNotifier4freeEv
__ZN26_IOServiceInterestNotifier4waitEv
__ZN26_IOServiceInterestNotifier6enableEb
__ZN26_IOServiceInterestNotifier6removeEv
__ZN26_IOServiceInterestNotifier7disableEv
__ZN26_IOServiceInterestNotifier9MetaClassC1Ev
__ZN26_IOServiceInterestNotifier9MetaClassC2Ev
__ZN26_IOServiceInterestNotifier9metaClassE
__ZN26_IOServiceInterestNotifierC1EPK11OSMetaClass
__ZN26_IOServiceInterestNotifierC1Ev
__ZN26_IOServiceInterestNotifierC2EPK11OSMetaClass
__ZN26_IOServiceInterestNotifierC2Ev
__ZN26_IOServiceInterestNotifierD0Ev
__ZN26_IOServiceInterestNotifierD2Ev
__ZN27IOSharedInterruptController10gMetaClassE
__ZN27IOSharedInterruptController10superClassE
__ZN27IOSharedInterruptController15enableInterruptEP9IOServicei
__ZN27IOSharedInterruptController15handleInterruptEPvP9IOServicei
__ZN27IOSharedInterruptController16disableInterruptEP9IOServicei
__ZN27IOSharedInterruptController16getInterruptTypeEP9IOServiceiPi
__ZN27IOSharedInterruptController17registerInterruptEP9IOServiceiPvPFvS2_S2_S2_iES2_
__ZN27IOSharedInterruptController19unregisterInterruptEP9IOServicei
__ZN27IOSharedInterruptController23initInterruptControllerEP21IOInterruptControllerP6OSData
__ZN27IOSharedInterruptController26getInterruptHandlerAddressEv
__ZN27IOSharedInterruptController37_RESERVEDIOSharedInterruptController0Ev
__ZN27IOSharedInterruptController37_RESERVEDIOSharedInterruptController1Ev
__ZN27IOSharedInterruptController37_RESERVEDIOSharedInterruptController2Ev
__ZN27IOSharedInterruptController37_RESERVEDIOSharedInterruptController3Ev
__ZN27IOSharedInterruptController9MetaClassC1Ev
__ZN27IOSharedInterruptController9MetaClassC2Ev
__ZN27IOSharedInterruptController9metaClassE
__ZN27IOSharedInterruptControllerC1EPK11OSMetaClass
__ZN27IOSharedInterruptControllerC1Ev
__ZN27IOSharedInterruptControllerC2EPK11OSMetaClass
__ZN27IOSharedInterruptControllerC2Ev
__ZN27IOSharedInterruptControllerD0Ev
__ZN27IOSharedInterruptControllerD2Ev
__ZN28IOFilterInterruptEventSource10gMetaClassE
__ZN28IOFilterInterruptEventSource10superClassE
__ZN28IOFilterInterruptEventSource15signalInterruptEv
__ZN28IOFilterInterruptEventSource20interruptEventSourceEP8OSObjectPFvS1_P22IOInterruptEventSourceiEP9IOServicei
__ZN28IOFilterInterruptEventSource23normalInterruptOccurredEPvP9IOServicei
__ZN28IOFilterInterruptEventSource24disableInterruptOccurredEPvP9IOServicei
__ZN28IOFilterInterruptEventSource26filterInterruptEventSourceEP8OSObjectPFvS1_P22IOInterruptEventSourceiEPFbS1_PS_EP9IOServicei
__ZN28IOFilterInterruptEventSource38_RESERVEDIOFilterInterruptEventSource0Ev
__ZN28IOFilterInterruptEventSource38_RESERVEDIOFilterInterruptEventSource1Ev
__ZN28IOFilterInterruptEventSource38_RESERVEDIOFilterInterruptEventSource2Ev
__ZN28IOFilterInterruptEventSource38_RESERVEDIOFilterInterruptEventSource3Ev
__ZN28IOFilterInterruptEventSource38_RESERVEDIOFilterInterruptEventSource4Ev
__ZN28IOFilterInterruptEventSource38_RESERVEDIOFilterInterruptEventSource5Ev
__ZN28IOFilterInterruptEventSource38_RESERVEDIOFilterInterruptEventSource6Ev
__ZN28IOFilterInterruptEventSource38_RESERVEDIOFilterInterruptEventSource7Ev
__ZN28IOFilterInterruptEventSource4initEP8OSObjectPFvS1_P22IOInterruptEventSourceiEP9IOServicei
__ZN28IOFilterInterruptEventSource4initEP8OSObjectPFvS1_P22IOInterruptEventSourceiEPFbS1_PS_EP9IOServicei
__ZN28IOFilterInterruptEventSource9MetaClassC1Ev
__ZN28IOFilterInterruptEventSource9MetaClassC2Ev
__ZN28IOFilterInterruptEventSource9metaClassE
__ZN28IOFilterInterruptEventSourceC1EPK11OSMetaClass
__ZN28IOFilterInterruptEventSourceC1Ev
__ZN28IOFilterInterruptEventSourceC2EPK11OSMetaClass
__ZN28IOFilterInterruptEventSourceC2Ev
__ZN28IOFilterInterruptEventSourceD0Ev
__ZN28IOFilterInterruptEventSourceD2Ev
__ZN32IOServiceMessageUserNotification10gMetaClassE
__ZN32IOServiceMessageUserNotification10superClassE
__ZN32IOServiceMessageUserNotification13getNextObjectEv
__ZN32IOServiceMessageUserNotification4freeEv
__ZN32IOServiceMessageUserNotification4initEP8ipc_portjPjj
__ZN32IOServiceMessageUserNotification7handlerEPvmP9IOServiceS0_j
__ZN32IOServiceMessageUserNotification8_handlerEPvS0_mP9IOServiceS0_j
__ZN32IOServiceMessageUserNotification9MetaClassC1Ev
__ZN32IOServiceMessageUserNotification9MetaClassC2Ev
__ZN32IOServiceMessageUserNotification9metaClassE
__ZN32IOServiceMessageUserNotificationC1EPK11OSMetaClass
__ZN32IOServiceMessageUserNotificationC1Ev
__ZN32IOServiceMessageUserNotificationC2EPK11OSMetaClass
__ZN32IOServiceMessageUserNotificationC2Ev
__ZN32IOServiceMessageUserNotificationD0Ev
__ZN32IOServiceMessageUserNotificationD2Ev
__ZN5IOCPU10gMetaClassE
__ZN5IOCPU10superClassE
__ZN5IOCPU11getCPUGroupEv
__ZN5IOCPU11getCPUStateEv
__ZN5IOCPU11setCPUStateEm
__ZN5IOCPU11setPropertyEPK8OSSymbolP8OSObject
__ZN5IOCPU12getCPUNumberEv
__ZN5IOCPU12setCPUNumberEm
__ZN5IOCPU13setPropertiesEP8OSObject
__ZN5IOCPU15_RESERVEDIOCPU0Ev
__ZN5IOCPU15_RESERVEDIOCPU1Ev
__ZN5IOCPU15_RESERVEDIOCPU2Ev
__ZN5IOCPU15_RESERVEDIOCPU3Ev
__ZN5IOCPU15_RESERVEDIOCPU4Ev
__ZN5IOCPU15_RESERVEDIOCPU5Ev
__ZN5IOCPU15_RESERVEDIOCPU6Ev
__ZN5IOCPU15_RESERVEDIOCPU7Ev
__ZN5IOCPU15getCPUGroupSizeEv
__ZN5IOCPU16getMachProcessorEv
__ZN5IOCPU17enableCPUTimeBaseEb
__ZN5IOCPU5startEP9IOService
__ZN5IOCPU8initCPUsEv
__ZN5IOCPU9MetaClassC1Ev
__ZN5IOCPU9MetaClassC2Ev
__ZN5IOCPU9metaClassE
__ZN5IOCPU9signalCPUEPS_
__ZN5IOCPUC1EPK11OSMetaClass
__ZN5IOCPUC2EPK11OSMetaClass
__ZN5IOCPUD0Ev
__ZN5IOCPUD2Ev
__ZN5OSSet10gMetaClassE
__ZN5OSSet10setOptionsEjjPv
__ZN5OSSet10superClassE
__ZN5OSSet11initWithSetEPKS_j
__ZN5OSSet11withObjectsEPPK8OSObjectjj
__ZN5OSSet12removeObjectEPK15OSMetaClassBase
__ZN5OSSet12withCapacityEj
__ZN5OSSet13initWithArrayEPK7OSArrayj
__ZN5OSSet14copyCollectionEP12OSDictionary
__ZN5OSSet14ensureCapacityEj
__ZN5OSSet15_RESERVEDOSSet0Ev
__ZN5OSSet15_RESERVEDOSSet1Ev
__ZN5OSSet15_RESERVEDOSSet2Ev
__ZN5OSSet15_RESERVEDOSSet3Ev
__ZN5OSSet15_RESERVEDOSSet4Ev
__ZN5OSSet15_RESERVEDOSSet5Ev
__ZN5OSSet15_RESERVEDOSSet6Ev
__ZN5OSSet15_RESERVEDOSSet7Ev
__ZN5OSSet15flushCollectionEv
__ZN5OSSet15initWithObjectsEPPK8OSObjectjj
__ZN5OSSet16initWithCapacityEj
__ZN5OSSet20setCapacityIncrementEj
__ZN5OSSet4freeEv
__ZN5OSSet5mergeEPK7OSArray
__ZN5OSSet5mergeEPKS_
__ZN5OSSet7withSetEPKS_j
__ZN5OSSet9MetaClassC1Ev
__ZN5OSSet9MetaClassC2Ev
__ZN5OSSet9metaClassE
__ZN5OSSet9setObjectEPK15OSMetaClassBase
__ZN5OSSet9withArrayEPK7OSArrayj
__ZN5OSSetC1EPK11OSMetaClass
__ZN5OSSetC1Ev
__ZN5OSSetC2EPK11OSMetaClass
__ZN5OSSetC2Ev
__ZN5OSSetD0Ev
__ZN5OSSetD2Ev
__ZN6OSData10appendByteEhj
__ZN6OSData10gMetaClassE
__ZN6OSData10superClassE
__ZN6OSData11appendBytesEPKS_
__ZN6OSData11appendBytesEPKvj
__ZN6OSData12initWithDataEPKS_
__ZN6OSData12initWithDataEPKS_jj
__ZN6OSData12withCapacityEj
__ZN6OSData13initWithBytesEPKvj
__ZN6OSData14ensureCapacityEj
__ZN6OSData15withBytesNoCopyEPvj
__ZN6OSData16_RESERVEDOSData0Ev
__ZN6OSData16_RESERVEDOSData1Ev
__ZN6OSData16_RESERVEDOSData2Ev
__ZN6OSData16_RESERVEDOSData3Ev
__ZN6OSData16_RESERVEDOSData4Ev
__ZN6OSData16_RESERVEDOSData5Ev
__ZN6OSData16_RESERVEDOSData6Ev
__ZN6OSData16_RESERVEDOSData7Ev
__ZN6OSData16initWithCapacityEj
__ZN6OSData19initWithBytesNoCopyEPvj
__ZN6OSData20setCapacityIncrementEj
__ZN6OSData4freeEv
__ZN6OSData8withDataEPKS_
__ZN6OSData8withDataEPKS_jj
__ZN6OSData9MetaClassC1Ev
__ZN6OSData9MetaClassC2Ev
__ZN6OSData9metaClassE
__ZN6OSData9withBytesEPKvj
__ZN6OSDataC1EPK11OSMetaClass
__ZN6OSDataC1Ev
__ZN6OSDataC2EPK11OSMetaClass
__ZN6OSDataC2Ev
__ZN6OSDataD0Ev
__ZN6OSDataD2Ev
__ZN7OSArray10gMetaClassE
__ZN7OSArray10setOptionsEjjPv
__ZN7OSArray10superClassE
__ZN7OSArray11withObjectsEPPK8OSObjectjj
__ZN7OSArray12removeObjectEj
__ZN7OSArray12withCapacityEj
__ZN7OSArray13initWithArrayEPKS_j
__ZN7OSArray13replaceObjectEjPK15OSMetaClassBase
__ZN7OSArray14copyCollectionEP12OSDictionary
__ZN7OSArray14ensureCapacityEj
__ZN7OSArray15flushCollectionEv
__ZN7OSArray15initWithObjectsEPPK8OSObjectjj
__ZN7OSArray16initWithCapacityEj
__ZN7OSArray17_RESERVEDOSArray0Ev
__ZN7OSArray17_RESERVEDOSArray1Ev
__ZN7OSArray17_RESERVEDOSArray2Ev
__ZN7OSArray17_RESERVEDOSArray3Ev
__ZN7OSArray17_RESERVEDOSArray4Ev
__ZN7OSArray17_RESERVEDOSArray5Ev
__ZN7OSArray17_RESERVEDOSArray6Ev
__ZN7OSArray17_RESERVEDOSArray7Ev
__ZN7OSArray20setCapacityIncrementEj
__ZN7OSArray4freeEv
__ZN7OSArray5mergeEPKS_
__ZN7OSArray9MetaClassC1Ev
__ZN7OSArray9MetaClassC2Ev
__ZN7OSArray9metaClassE
__ZN7OSArray9setObjectEPK15OSMetaClassBase
__ZN7OSArray9setObjectEjPK15OSMetaClassBase
__ZN7OSArray9withArrayEPKS_j
__ZN7OSArrayC1EPK11OSMetaClass
__ZN7OSArrayC1Ev
__ZN7OSArrayC2EPK11OSMetaClass
__ZN7OSArrayC2Ev
__ZN7OSArrayD0Ev
__ZN7OSArrayD2Ev
__ZN8AppleCPU10gMetaClassE
__ZN8AppleCPU10getCPUNameEv
__ZN8AppleCPU10quiesceCPUEv
__ZN8AppleCPU10superClassE
__ZN8AppleCPU5startEP9IOService
__ZN8AppleCPU7haltCPUEv
__ZN8AppleCPU7initCPUEb
__ZN8AppleCPU8startCPUEjj
__ZN8AppleCPU9MetaClassC1Ev
__ZN8AppleCPU9MetaClassC2Ev
__ZN8AppleCPU9metaClassE
__ZN8AppleCPUC1EPK11OSMetaClass
__ZN8AppleCPUC1Ev
__ZN8AppleCPUC2EPK11OSMetaClass
__ZN8AppleCPUC2Ev
__ZN8AppleCPUD0Ev
__ZN8AppleCPUD2Ev
__ZN8AppleNMI10gMetaClassE
__ZN8AppleNMI10superClassE
__ZN8AppleNMI15handleInterruptEPvP9IOServicei
__ZN8AppleNMI18_RESERVEDAppleNMI0Ev
__ZN8AppleNMI18_RESERVEDAppleNMI1Ev
__ZN8AppleNMI18_RESERVEDAppleNMI2Ev
__ZN8AppleNMI18_RESERVEDAppleNMI3Ev
__ZN8AppleNMI22powerStateWillChangeToEmmP9IOService
__ZN8AppleNMI5startEP9IOService
__ZN8AppleNMI7initNMIEP21IOInterruptControllerP6OSData
__ZN8AppleNMI9MetaClassC1Ev
__ZN8AppleNMI9MetaClassC2Ev
__ZN8AppleNMI9metaClassE
__ZN8AppleNMIC1EPK11OSMetaClass
__ZN8AppleNMIC1Ev
__ZN8AppleNMIC2EPK11OSMetaClass
__ZN8AppleNMIC2Ev
__ZN8AppleNMID0Ev
__ZN8AppleNMID2Ev
__ZN8IOMapper10allocTableEm
__ZN8IOMapper10gMetaClassE
__ZN8IOMapper10iovmInsertEjmP13upl_page_infom
__ZN8IOMapper10iovmInsertEjmPjm
__ZN8IOMapper10superClassE
__ZN8IOMapper11NewARTTableEmPPvPj
__ZN8IOMapper12FreeARTTableEP6OSDatam
__ZN8IOMapper17setMapperRequiredEb
__ZN8IOMapper18_RESERVEDIOMapper1Ev
__ZN8IOMapper18_RESERVEDIOMapper2Ev
__ZN8IOMapper18_RESERVEDIOMapper3Ev
__ZN8IOMapper18_RESERVEDIOMapper4Ev
__ZN8IOMapper18_RESERVEDIOMapper5Ev
__ZN8IOMapper18_RESERVEDIOMapper6Ev
__ZN8IOMapper18_RESERVEDIOMapper7Ev
__ZN8IOMapper18_RESERVEDIOMapper8Ev
__ZN8IOMapper18_RESERVEDIOMapper9Ev
__ZN8IOMapper19_RESERVEDIOMapper10Ev
__ZN8IOMapper19_RESERVEDIOMapper11Ev
__ZN8IOMapper19_RESERVEDIOMapper12Ev
__ZN8IOMapper19_RESERVEDIOMapper13Ev
__ZN8IOMapper19_RESERVEDIOMapper14Ev
__ZN8IOMapper19_RESERVEDIOMapper15Ev
__ZN8IOMapper19waitForSystemMapperEv
__ZN8IOMapper4freeEv
__ZN8IOMapper5startEP9IOService
__ZN8IOMapper7gSystemE
__ZN8IOMapper9MetaClassC1Ev
__ZN8IOMapper9MetaClassC2Ev
__ZN8IOMapper9metaClassE
__ZN8IOMapperC1EPK11OSMetaClass
__ZN8IOMapperC2EPK11OSMetaClass
__ZN8IOMapperD0Ev
__ZN8IOMapperD2Ev
__ZN8IOPMpriv10gMetaClassE
__ZN8IOPMpriv10superClassE
__ZN8IOPMpriv9MetaClassC1Ev
__ZN8IOPMpriv9MetaClassC2Ev
__ZN8IOPMpriv9metaClassE
__ZN8IOPMprivC1EPK11OSMetaClass
__ZN8IOPMprivC1Ev
__ZN8IOPMprivC2EPK11OSMetaClass
__ZN8IOPMprivC2Ev
__ZN8IOPMprivD0Ev
__ZN8IOPMprivD2Ev
__ZN8IOPMprot10gMetaClassE
__ZN8IOPMprot10superClassE
__ZN8IOPMprot9MetaClassC1Ev
__ZN8IOPMprot9MetaClassC2Ev
__ZN8IOPMprot9metaClassE
__ZN8IOPMprotC1EPK11OSMetaClass
__ZN8IOPMprotC1Ev
__ZN8IOPMprotC2EPK11OSMetaClass
__ZN8IOPMprotC2Ev
__ZN8IOPMprotD0Ev
__ZN8IOPMprotD2Ev
__ZN8IOSyncer10gMetaClassE
__ZN8IOSyncer10superClassE
__ZN8IOSyncer13privateSignalEv
__ZN8IOSyncer4freeEv
__ZN8IOSyncer4initEb
__ZN8IOSyncer4waitEb
__ZN8IOSyncer6createEb
__ZN8IOSyncer6reinitEv
__ZN8IOSyncer6signalEib
__ZN8IOSyncer9MetaClassC1Ev
__ZN8IOSyncer9MetaClassC2Ev
__ZN8IOSyncer9metaClassE
__ZN8IOSyncerC1EPK11OSMetaClass
__ZN8IOSyncerC1Ev
__ZN8IOSyncerC2EPK11OSMetaClass
__ZN8IOSyncerC2Ev
__ZN8IOSyncerD0Ev
__ZN8IOSyncerD2Ev
__ZN8OSNumber10gMetaClassE
__ZN8OSNumber10superClassE
__ZN8OSNumber10withNumberEPKcj
__ZN8OSNumber10withNumberEyj
__ZN8OSNumber18_RESERVEDOSNumber0Ev
__ZN8OSNumber18_RESERVEDOSNumber1Ev
__ZN8OSNumber18_RESERVEDOSNumber2Ev
__ZN8OSNumber18_RESERVEDOSNumber3Ev
__ZN8OSNumber18_RESERVEDOSNumber4Ev
__ZN8OSNumber18_RESERVEDOSNumber5Ev
__ZN8OSNumber18_RESERVEDOSNumber6Ev
__ZN8OSNumber18_RESERVEDOSNumber7Ev
__ZN8OSNumber4freeEv
__ZN8OSNumber4initEPKcj
__ZN8OSNumber4initEyj
__ZN8OSNumber8addValueEx
__ZN8OSNumber8setValueEy
__ZN8OSNumber9MetaClassC1Ev
__ZN8OSNumber9MetaClassC2Ev
__ZN8OSNumber9metaClassE
__ZN8OSNumberC1EPK11OSMetaClass
__ZN8OSNumberC1Ev
__ZN8OSNumberC2EPK11OSMetaClass
__ZN8OSNumberC2Ev
__ZN8OSNumberD0Ev
__ZN8OSNumberD2Ev
__ZN8OSObject10gMetaClassE
__ZN8OSObject10superClassE
__ZN8OSObject18_RESERVEDOSObject0Ev
__ZN8OSObject18_RESERVEDOSObject1Ev
__ZN8OSObject18_RESERVEDOSObject2Ev
__ZN8OSObject18_RESERVEDOSObject3Ev
__ZN8OSObject18_RESERVEDOSObject4Ev
__ZN8OSObject18_RESERVEDOSObject5Ev
__ZN8OSObject18_RESERVEDOSObject6Ev
__ZN8OSObject18_RESERVEDOSObject7Ev
__ZN8OSObject18_RESERVEDOSObject8Ev
__ZN8OSObject18_RESERVEDOSObject9Ev
__ZN8OSObject19_RESERVEDOSObject10Ev
__ZN8OSObject19_RESERVEDOSObject11Ev
__ZN8OSObject19_RESERVEDOSObject12Ev
__ZN8OSObject19_RESERVEDOSObject13Ev
__ZN8OSObject19_RESERVEDOSObject14Ev
__ZN8OSObject19_RESERVEDOSObject15Ev
__ZN8OSObject19_RESERVEDOSObject16Ev
__ZN8OSObject19_RESERVEDOSObject17Ev
__ZN8OSObject19_RESERVEDOSObject18Ev
__ZN8OSObject19_RESERVEDOSObject19Ev
__ZN8OSObject19_RESERVEDOSObject20Ev
__ZN8OSObject19_RESERVEDOSObject21Ev
__ZN8OSObject19_RESERVEDOSObject22Ev
__ZN8OSObject19_RESERVEDOSObject23Ev
__ZN8OSObject19_RESERVEDOSObject24Ev
__ZN8OSObject19_RESERVEDOSObject25Ev
__ZN8OSObject19_RESERVEDOSObject26Ev
__ZN8OSObject19_RESERVEDOSObject27Ev
__ZN8OSObject19_RESERVEDOSObject28Ev
__ZN8OSObject19_RESERVEDOSObject29Ev
__ZN8OSObject19_RESERVEDOSObject30Ev
__ZN8OSObject19_RESERVEDOSObject31Ev
__ZN8OSObject4freeEv
__ZN8OSObject4initEv
__ZN8OSObject9MetaClassC1Ev
__ZN8OSObject9MetaClassC2Ev
__ZN8OSObject9metaClassE
__ZN8OSObjectC1EPK11OSMetaClass
__ZN8OSObjectC1Ev
__ZN8OSObjectC2EPK11OSMetaClass
__ZN8OSObjectC2Ev
__ZN8OSObjectD0Ev
__ZN8OSObjectD2Ev
__ZN8OSObjectdlEPvm
__ZN8OSObjectnwEm
__ZN8OSString10gMetaClassE
__ZN8OSString10superClassE
__ZN8OSString10withStringEPKS_
__ZN8OSString11withCStringEPKc
__ZN8OSString14initWithStringEPKS_
__ZN8OSString15initWithCStringEPKc
__ZN8OSString17withCStringNoCopyEPKc
__ZN8OSString18_RESERVEDOSString0Ev
__ZN8OSString18_RESERVEDOSString1Ev
__ZN8OSString18_RESERVEDOSString2Ev
__ZN8OSString18_RESERVEDOSString3Ev
__ZN8OSString18_RESERVEDOSString4Ev
__ZN8OSString18_RESERVEDOSString5Ev
__ZN8OSString18_RESERVEDOSString6Ev
__ZN8OSString18_RESERVEDOSString7Ev
__ZN8OSString18_RESERVEDOSString8Ev
__ZN8OSString18_RESERVEDOSString9Ev
__ZN8OSString19_RESERVEDOSString10Ev
__ZN8OSString19_RESERVEDOSString11Ev
__ZN8OSString19_RESERVEDOSString12Ev
__ZN8OSString19_RESERVEDOSString13Ev
__ZN8OSString19_RESERVEDOSString14Ev
__ZN8OSString19_RESERVEDOSString15Ev
__ZN8OSString21initWithCStringNoCopyEPKc
__ZN8OSString4freeEv
__ZN8OSString7setCharEcj
__ZN8OSString9MetaClassC1Ev
__ZN8OSString9MetaClassC2Ev
__ZN8OSString9metaClassE
__ZN8OSStringC1EPK11OSMetaClass
__ZN8OSStringC1Ev
__ZN8OSStringC2EPK11OSMetaClass
__ZN8OSStringC2Ev
__ZN8OSStringD0Ev
__ZN8OSStringD2Ev
__ZN8OSSymbol10gMetaClassE
__ZN8OSSymbol10initializeEv
__ZN8OSSymbol10superClassE
__ZN8OSSymbol10withStringEPK8OSString
__ZN8OSSymbol11withCStringEPKc
__ZN8OSSymbol14initWithStringEPK8OSString
__ZN8OSSymbol15initWithCStringEPKc
__ZN8OSSymbol17withCStringNoCopyEPKc
__ZN8OSSymbol18_RESERVEDOSSymbol0Ev
__ZN8OSSymbol18_RESERVEDOSSymbol1Ev
__ZN8OSSymbol18_RESERVEDOSSymbol2Ev
__ZN8OSSymbol18_RESERVEDOSSymbol3Ev
__ZN8OSSymbol18_RESERVEDOSSymbol4Ev
__ZN8OSSymbol18_RESERVEDOSSymbol5Ev
__ZN8OSSymbol18_RESERVEDOSSymbol6Ev
__ZN8OSSymbol18_RESERVEDOSSymbol7Ev
__ZN8OSSymbol18checkForPageUnloadEPvS0_
__ZN8OSSymbol21initWithCStringNoCopyEPKc
__ZN8OSSymbol4freeEv
__ZN8OSSymbol9MetaClassC1Ev
__ZN8OSSymbol9MetaClassC2Ev
__ZN8OSSymbol9metaClassE
__ZN8OSSymbolC1EPK11OSMetaClass
__ZN8OSSymbolC1Ev
__ZN8OSSymbolC2EPK11OSMetaClass
__ZN8OSSymbolC2Ev
__ZN8OSSymbolD0Ev
__ZN8OSSymbolD2Ev
__ZN9IOCommand10gMetaClassE
__ZN9IOCommand10superClassE
__ZN9IOCommand4initEv
__ZN9IOCommand9MetaClassC1Ev
__ZN9IOCommand9MetaClassC2Ev
__ZN9IOCommand9metaClassE
__ZN9IOCommandC1EPK11OSMetaClass
__ZN9IOCommandC1Ev
__ZN9IOCommandC2EPK11OSMetaClass
__ZN9IOCommandC2Ev
__ZN9IOCommandD0Ev
__ZN9IOCommandD2Ev
__ZN9IODTNVRAM10gMetaClassE
__ZN9IODTNVRAM10superClassE
__ZN9IODTNVRAM10writeXPRAMEmPhm
__ZN9IODTNVRAM11setPropertyEPK8OSSymbolP8OSObject
__ZN9IODTNVRAM13savePanicInfoEPhm
__ZN9IODTNVRAM13setPropertiesEP8OSObject
__ZN9IODTNVRAM14removePropertyEPK8OSSymbol
__ZN9IODTNVRAM15initOFVariablesEv
__ZN9IODTNVRAM15syncOFVariablesEv
__ZN9IODTNVRAM16escapeDataToDataEP6OSData
__ZN9IODTNVRAM16updateOWBootArgsEPK8OSSymbolP8OSObject
__ZN9IODTNVRAM17getOWVariableInfoEmPPK8OSSymbolPmS4_
__ZN9IODTNVRAM17readNVRAMPropertyEP15IORegistryEntryPPK8OSSymbolPP6OSData
__ZN9IODTNVRAM18generateOWChecksumEPh
__ZN9IODTNVRAM18getNVRAMPartitionsEv
__ZN9IODTNVRAM18readNVRAMPartitionEPK8OSSymbolmPhm
__ZN9IODTNVRAM18validateOWChecksumEPh
__ZN9IODTNVRAM18writeNVRAMPropertyEP15IORegistryEntryPK8OSSymbolP6OSData
__ZN9IODTNVRAM19convertObjectToPropEPhPmPK8OSSymbolP8OSObject
__ZN9IODTNVRAM19convertPropToObjectEPhmS0_mPPK8OSSymbolPP8OSObject
__ZN9IODTNVRAM19searchNVRAMPropertyEP17IONVRAMDescriptorPm
__ZN9IODTNVRAM19unescapeBytesToDataEPKhm
__ZN9IODTNVRAM19writeNVRAMPartitionEPK8OSSymbolmPhm
__ZN9IODTNVRAM22readNVRAMPropertyType0EP15IORegistryEntryPPK8OSSymbolPP6OSData
__ZN9IODTNVRAM22readNVRAMPropertyType1EP15IORegistryEntryPPK8OSSymbolPP6OSData
__ZN9IODTNVRAM23registerNVRAMControllerEP17IONVRAMController
__ZN9IODTNVRAM23writeNVRAMPropertyType0EP15IORegistryEntryPK8OSSymbolP6OSData
__ZN9IODTNVRAM23writeNVRAMPropertyType1EP15IORegistryEntryPK8OSSymbolP6OSData
__ZN9IODTNVRAM26calculatePartitionChecksumEPh
__ZN9IODTNVRAM4initEP15IORegistryEntryPK15IORegistryPlane
__ZN9IODTNVRAM4syncEv
__ZN9IODTNVRAM9MetaClassC1Ev
__ZN9IODTNVRAM9MetaClassC2Ev
__ZN9IODTNVRAM9metaClassE
__ZN9IODTNVRAM9readXPRAMEmPhm
__ZN9IODTNVRAMC1EPK11OSMetaClass
__ZN9IODTNVRAMC1Ev
__ZN9IODTNVRAMC2EPK11OSMetaClass
__ZN9IODTNVRAMC2Ev
__ZN9IODTNVRAMD0Ev
__ZN9IODTNVRAMD2Ev
__ZN9IOService10actionStopEPS_S0_
__ZN9IOService10adjustBusyEl
__ZN9IOService10ask_parentEm
__ZN9IOService10gMetaClassE
__ZN9IOService10handleOpenEPS_mPv
__ZN9IOService10initializeEv
__ZN9IOService10joinPMtreeEPS_
__ZN9IOService10makeUsableEv
__ZN9IOService10superClassE
__ZN9IOService10systemWakeEv
__ZN9IOService10youAreRootEv
__ZN9IOService11_adjustBusyEl
__ZN9IOService11addLocationEP12OSDictionary
__ZN9IOService11changeStateEv
__ZN9IOService11getPlatformEv
__ZN9IOService11handleCloseEPS_m
__ZN9IOService11notifyChildEP17IOPowerConnectionb
__ZN9IOService11setPlatformEP16IOPlatformExpert
__ZN9IOService11tellClientsEi
__ZN9IOService12acquire_lockEv
__ZN9IOService12checkForDoneEv
__ZN9IOService12clampPowerOnEm
__ZN9IOService12didTerminateEPS_mPb
__ZN9IOService12driver_ackedEv
__ZN9IOService12getBusyStateEv
__ZN9IOService12getResourcesEv
__ZN9IOService12nameMatchingEPK8OSStringP12OSDictionary
__ZN9IOService12nameMatchingEPKcP12OSDictionary
__ZN9IOService12passiveMatchEP12OSDictionaryb
__ZN9IOService12requestProbeEm
__ZN9IOService12scheduleStopEPS_
__ZN9IOService12tellChangeUpEm
__ZN9IOService12waitForStateEmmP13mach_timespec
__ZN9IOService13addPowerChildEPS_
__ZN9IOService13askChangeDownEm
__ZN9IOService13checkResourceEP8OSObject
__ZN9IOService13getPMworkloopEv
__ZN9IOService13invokeNotiferEP18_IOServiceNotifier
__ZN9IOService13matchLocationEPS_
__ZN9IOService13messageClientEmP8OSObjectPvj
__ZN9IOService13newUserClientEP4taskPvmP12OSDictionaryPP12IOUserClient
__ZN9IOService13newUserClientEP4taskPvmPP12IOUserClient
__ZN9IOService13responseValidEm
__ZN9IOService13setParentInfoEmP17IOPowerConnection
__ZN9IOService13setPowerStateEmPS_
__ZN9IOService13startMatchingEm
__ZN9IOService13waitMatchIdleEm
__ZN9IOService13willTerminateEPS_m
__ZN9IOService14actionFinalizeEPS_m
__ZN9IOService14activityTickleEmm
__ZN9IOService14applyToClientsEPFvPS_PvES1_
__ZN9IOService14causeInterruptEi
__ZN9IOService14checkResourcesEv
__ZN9IOService14doServiceMatchEm
__ZN9IOService14getServiceRootEv
__ZN9IOService14messageClientsEmPvj
__ZN9IOService14newTemperatureElPS_
__ZN9IOService14setPowerParentEP17IOPowerConnectionbm
__ZN9IOService14startCandidateEPS_
__ZN9IOService14stop_ack_timerEv
__ZN9IOService14tellChangeDownEm
__ZN9IOService14waitForServiceEP12OSDictionaryP13mach_timespec
__ZN9IOService15OurChangeFinishEv
__ZN9IOService15addNotificationEPK8OSSymbolP12OSDictionaryPFbPvS5_PS_ES5_S5_l
__ZN9IOService15comparePropertyEP12OSDictionaryPK8OSString
__ZN9IOService15comparePropertyEP12OSDictionaryPKc
__ZN9IOService15enableInterruptEi
__ZN9IOService15errnoFromReturnEi
__ZN9IOService15getDeviceMemoryEv
__ZN9IOService15getPMRootDomainEv
__ZN9IOService15instruct_driverEm
__ZN9IOService15lookupInterruptEibPP21IOInterruptController
__ZN9IOService15nextIdleTimeoutE12UnsignedWideS0_j
__ZN9IOService15powerChangeDoneEm
__ZN9IOService15probeCandidatesEP12OSOrderedSet
__ZN9IOService15publishResourceEPK8OSSymbolP8OSObject
__ZN9IOService15publishResourceEPKcP8OSObject
__ZN9IOService15registerServiceEm
__ZN9IOService15serviceMatchingEPK8OSStringP12OSDictionary
__ZN9IOService15serviceMatchingEPKcP12OSDictionary
__ZN9IOService15setDeviceMemoryEP7OSArray
__ZN9IOService15setNotificationEPK8OSSymbolP12OSDictionaryPFbPvS5_PS_ES5_S5_l
__ZN9IOService15setPMRootDomainEP14IOPMrootDomain
__ZN9IOService15start_ack_timerEv
__ZN9IOService15tellChangeDown1Em
__ZN9IOService15tellChangeDown2Em
__ZN9IOService15terminateClientEPS_m
__ZN9IOService15terminatePhase1Em
__ZN9IOService15terminateThreadEPv
__ZN9IOService15terminateWorkerEm
__ZN9IOService16ack_timer_tickedEv
__ZN9IOService16allowPowerChangeEm
__ZN9IOService16applyToProvidersEPFvPS_PvES1_
__ZN9IOService16command_receivedEPvS0_S0_S0_
__ZN9IOService16didYouWakeSystemEv
__ZN9IOService16disableInterruptEi
__ZN9IOService16getCPUSnoopDelayEv
__ZN9IOService16getInterruptTypeEiPi
__ZN9IOService16registerInterestEPK8OSSymbolPFiPvS3_mPS_S3_jES3_S3_
__ZN9IOService16removePowerChildEP17IOPowerConnection
__ZN9IOService16requestTerminateEPS_m
__ZN9IOService16resolveInterruptEPS_i
__ZN9IOService16resourceMatchingEPK8OSStringP12OSDictionary
__ZN9IOService16resourceMatchingEPKcP12OSDictionary
__ZN9IOService16scheduleFinalizeEv
__ZN9IOService16setCPUSnoopDelayEm
__ZN9IOService16startSettleTimerEm
__ZN9IOService16start_our_changeEm
__ZN9IOService16stringFromReturnEi
__ZN9IOService16tellNoChangeDownEm
__ZN9IOService17addNeededResourceEPKc
__ZN9IOService17allowCancelCommonEv
__ZN9IOService17applyToInterestedEPK8OSSymbolPFvP8OSObjectPvES5_
__ZN9IOService17cancelPowerChangeEm
__ZN9IOService17catalogNewDriversEP12OSOrderedSet
__ZN9IOService17comparePropertiesEP12OSDictionaryP12OSCollection
__ZN9IOService17currentCapabilityEv
__ZN9IOService17getAggressivenessEmPm
__ZN9IOService17registerInterruptEiP8OSObjectPFvS1_PvPS_iES2_
__ZN9IOService17setAggressivenessEmm
__ZN9IOService18actionDidTerminateEPS_m
__ZN9IOService18changePowerStateToEm
__ZN9IOService18doServiceTerminateEm
__ZN9IOService18enqueuePowerChangeEmmmP17IOPowerConnectionm
__ZN9IOService18getResourceServiceEv
__ZN9IOService18lockForArbitrationEb
__ZN9IOService18matchPropertyTableEP12OSDictionary
__ZN9IOService18matchPropertyTableEP12OSDictionaryPl
__ZN9IOService18requireMaxBusStallEm
__ZN9IOService18setIdleTimerPeriodEm
__ZN9IOService18settleTimerExpiredEv
__ZN9IOService19_RESERVEDIOService4Ev
__ZN9IOService19_RESERVEDIOService5Ev
__ZN9IOService19_RESERVEDIOService6Ev
__ZN9IOService19_RESERVEDIOService7Ev
__ZN9IOService19_RESERVEDIOService8Ev
__ZN9IOService19_RESERVEDIOService9Ev
__ZN9IOService19actionWillTerminateEPS_mP7OSArray
__ZN9IOService19computeDesiredStateEv
__ZN9IOService19compute_settle_timeEv
__ZN9IOService19deliverNotificationEPK8OSSymbolmm
__ZN9IOService19getExistingServicesEP12OSDictionarymm
__ZN9IOService19getMatchingServicesEP12OSDictionary
__ZN9IOService19installNotificationEPK8OSSymbolP12OSDictionaryPFbPvS5_PS_ES5_S5_lPP10OSIterator
__ZN9IOService19powerOverrideOnPrivEv
__ZN9IOService19registerPowerDriverEPS_P14IOPMPowerStatem
__ZN9IOService19start_PM_idle_timerEv
__ZN9IOService19start_parent_changeEm
__ZN9IOService19temporaryMakeUsableEv
__ZN9IOService19unregisterInterruptEi
__ZN9IOService20_RESERVEDIOService10Ev
__ZN9IOService20_RESERVEDIOService11Ev
__ZN9IOService20_RESERVEDIOService12Ev
__ZN9IOService20_RESERVEDIOService13Ev
__ZN9IOService20_RESERVEDIOService14Ev
__ZN9IOService20_RESERVEDIOService15Ev
__ZN9IOService20_RESERVEDIOService16Ev
__ZN9IOService20_RESERVEDIOService17Ev
__ZN9IOService20_RESERVEDIOService18Ev
__ZN9IOService20_RESERVEDIOService19Ev
__ZN9IOService20_RESERVEDIOService20Ev
__ZN9IOService20_RESERVEDIOService21Ev
__ZN9IOService20_RESERVEDIOService22Ev
__ZN9IOService20_RESERVEDIOService23Ev
__ZN9IOService20_RESERVEDIOService24Ev
__ZN9IOService20_RESERVEDIOService25Ev
__ZN9IOService20_RESERVEDIOService26Ev
__ZN9IOService20_RESERVEDIOService27Ev
__ZN9IOService20_RESERVEDIOService28Ev
__ZN9IOService20_RESERVEDIOService29Ev
__ZN9IOService20_RESERVEDIOService30Ev
__ZN9IOService20_RESERVEDIOService31Ev
__ZN9IOService20_RESERVEDIOService32Ev
__ZN9IOService20_RESERVEDIOService33Ev
__ZN9IOService20_RESERVEDIOService34Ev
__ZN9IOService20_RESERVEDIOService35Ev
__ZN9IOService20_RESERVEDIOService36Ev
__ZN9IOService20_RESERVEDIOService37Ev
__ZN9IOService20_RESERVEDIOService38Ev
__ZN9IOService20_RESERVEDIOService39Ev
__ZN9IOService20_RESERVEDIOService40Ev
__ZN9IOService20_RESERVEDIOService41Ev
__ZN9IOService20_RESERVEDIOService42Ev
__ZN9IOService20_RESERVEDIOService43Ev
__ZN9IOService20_RESERVEDIOService44Ev
__ZN9IOService20_RESERVEDIOService45Ev
__ZN9IOService20_RESERVEDIOService46Ev
__ZN9IOService20_RESERVEDIOService47Ev
__ZN9IOService20_RESERVEDIOService48Ev
__ZN9IOService20_RESERVEDIOService49Ev
__ZN9IOService20_RESERVEDIOService50Ev
__ZN9IOService20_RESERVEDIOService51Ev
__ZN9IOService20_RESERVEDIOService52Ev
__ZN9IOService20_RESERVEDIOService53Ev
__ZN9IOService20_RESERVEDIOService54Ev
__ZN9IOService20_RESERVEDIOService55Ev
__ZN9IOService20_RESERVEDIOService56Ev
__ZN9IOService20_RESERVEDIOService57Ev
__ZN9IOService20_RESERVEDIOService58Ev
__ZN9IOService20_RESERVEDIOService59Ev
__ZN9IOService20_RESERVEDIOService60Ev
__ZN9IOService20_RESERVEDIOService61Ev
__ZN9IOService20_RESERVEDIOService62Ev
__ZN9IOService20_RESERVEDIOService63Ev
__ZN9IOService20callPlatformFunctionEPK8OSSymbolbPvS3_S3_S3_
__ZN9IOService20callPlatformFunctionEPKcbPvS2_S2_S2_
__ZN9IOService20getDeviceMemoryCountEv
__ZN9IOService20powerOverrideOffPrivEv
__ZN9IOService20unlockForArbitrationEv
__ZN9IOService21doInstallNotificationEPK8OSSymbolP12OSDictionaryPFbPvS5_PS_ES5_S5_lPP10OSIterator
__ZN9IOService21getClientWithCategoryEPK8OSSymbol
__ZN9IOService21powerStateDidChangeToEmmPS_
__ZN9IOService21rebuildChildClampBitsEv
__ZN9IOService21temporaryPowerClampOnEv
__ZN9IOService21unregisterAllInterestEv
__ZN9IOService22OurChangeSetPowerStateEv
__ZN9IOService22PM_Clamp_Timer_ExpiredEv
__ZN9IOService22acknowledgePowerChangeEPS_
__ZN9IOService22changePowerStateToPrivEm
__ZN9IOService22powerDomainDidChangeToEmP17IOPowerConnection
__ZN9IOService22powerStateWillChangeToEmmPS_
__ZN9IOService23acknowledgeNotificationEPvm
__ZN9IOService23currentPowerConsumptionEv
__ZN9IOService23powerDomainWillChangeToEmP17IOPowerConnection
__ZN9IOService23requestPowerDomainStateEmP17IOPowerConnectionm
__ZN9IOService23scheduleTerminatePhase2Em
__ZN9IOService23syncNotificationHandlerEPvS0_PS_
__ZN9IOService23tellClientsWithResponseEi
__ZN9IOService24PM_idle_timer_expirationEv
__ZN9IOService24acknowledgeSetPowerStateEv
__ZN9IOService24getDeviceMemoryWithIndexEj
__ZN9IOService24mapDeviceMemoryWithIndexEjm
__ZN9IOService24powerStateForDomainStateEm
__ZN9IOService24registerInterestedDriverEPS_
__ZN9IOService26add_child_to_active_changeEP17IOPowerConnection
__ZN9IOService26deRegisterInterestedDriverEPS_
__ZN9IOService26temperatureCriticalForZoneEPS_
__ZN9IOService27OurChangeWaitForPowerSettleEv
__ZN9IOService27add_driver_to_active_changeEP12IOPMinformee
__ZN9IOService27maxCapabilityForDomainStateEm
__ZN9IOService27serializedAllowPowerChange2Em
__ZN9IOService28serializedCancelPowerChange2Em
__ZN9IOService29OurChangeTellClientsPowerDownEv
__ZN9IOService29ParentUpSetPowerState_DelayedEv
__ZN9IOService31ParentDownSetPowerState_DelayedEv
__ZN9IOService31ParentUpSetPowerState_ImmediateEv
__ZN9IOService31initialPowerStateForDomainStateEm
__ZN9IOService33ParentDownSetPowerState_ImmediateEv
__ZN9IOService33ParentUpWaitForSettleTime_DelayedEv
__ZN9IOService35ParentDownAcknowledgeChange_DelayedEv
__ZN9IOService35ParentUpWaitForSettleTime_ImmediateEv
__ZN9IOService36ParentDownWaitForPowerSettle_DelayedEv
__ZN9IOService37OurChangeTellPriorityClientsPowerDownEv
__ZN9IOService38ParentUpAcknowledgePowerChange_DelayedEv
__ZN9IOService41OurChangeNotifyInterestedDriversDidChangeEv
__ZN9IOService42OurChangeNotifyInterestedDriversWillChangeEv
__ZN9IOService46ParentDownTellPriorityClientsPowerDown_DelayedEv
__ZN9IOService48ParentDownTellPriorityClientsPowerDown_ImmediateEv
__ZN9IOService48ParentUpNotifyInterestedDriversDidChange_DelayedEv
__ZN9IOService4freeEv
__ZN9IOService4openEPS_mPv
__ZN9IOService4stopEPS_
__ZN9IOService50ParentUpNotifyInterestedDriversDidChange_ImmediateEv
__ZN9IOService51ParentDownNotifyInterestedDriversWillChange_DelayedEv
__ZN9IOService53ParentDownNotifyDidChangeAndAcknowledgeChange_DelayedEv
__ZN9IOService53ParentDownNotifyInterestedDriversWillChange_ImmediateEv
__ZN9IOService56ParentDownWaitForPowerSettleAndNotifyDidChange_ImmediateEv
__ZN9IOService5closeEPS_m
__ZN9IOService5probeEPS_Pl
__ZN9IOService5startEPS_
__ZN9IOService6PMfreeEv
__ZN9IOService6PMinitEv
__ZN9IOService6PMstopEv
__ZN9IOService6attachEPS_
__ZN9IOService6detachEPS_
__ZN9IOService6informEP12IOPMinformeeb
__ZN9IOService7messageEmPS_Pv
__ZN9IOService8all_doneEv
__ZN9IOService8finalizeEm
__ZN9IOService9MetaClassC1Ev
__ZN9IOService9MetaClassC2Ev
__ZN9IOService9all_ackedEv
__ZN9IOService9metaClassE
__ZN9IOService9notifyAllEb
__ZN9IOService9resourcesEv
__ZN9IOService9terminateEm
__ZN9IOService9waitQuietEP13mach_timespec
__ZN9IOServiceC1EPK11OSMetaClass
__ZN9IOServiceC1Ev
__ZN9IOServiceC2EPK11OSMetaClass
__ZN9IOServiceC2Ev
__ZN9IOServiceD0Ev
__ZN9IOServiceD2Ev
__ZN9OSBoolean10gMetaClassE
__ZN9OSBoolean10initializeEv
__ZN9OSBoolean10superClassE
__ZN9OSBoolean11withBooleanEb
__ZN9OSBoolean19_RESERVEDOSBoolean0Ev
__ZN9OSBoolean19_RESERVEDOSBoolean1Ev
__ZN9OSBoolean19_RESERVEDOSBoolean2Ev
__ZN9OSBoolean19_RESERVEDOSBoolean3Ev
__ZN9OSBoolean19_RESERVEDOSBoolean4Ev
__ZN9OSBoolean19_RESERVEDOSBoolean5Ev
__ZN9OSBoolean19_RESERVEDOSBoolean6Ev
__ZN9OSBoolean19_RESERVEDOSBoolean7Ev
__ZN9OSBoolean4freeEv
__ZN9OSBoolean9MetaClassC1Ev
__ZN9OSBoolean9MetaClassC2Ev
__ZN9OSBoolean9metaClassE
__ZN9OSBooleanC1EPK11OSMetaClass
__ZN9OSBooleanC1Ev
__ZN9OSBooleanC2EPK11OSMetaClass
__ZN9OSBooleanC2Ev
__ZN9OSBooleanD0Ev
__ZN9OSBooleanD2Ev
__ZNK10AppleMacIO12getMetaClassEv
__ZNK10AppleMacIO14compareNubNameEPK9IOServiceP8OSStringPS4_
__ZNK10AppleMacIO9MetaClass5allocEv
__ZNK10AppleNVRAM12getMetaClassEv
__ZNK10AppleNVRAM9MetaClass5allocEv
__ZNK10IOMachPort12getMetaClassEv
__ZNK10IOMachPort9MetaClass5allocEv
__ZNK10IONotifier12getMetaClassEv
__ZNK10IONotifier9MetaClass5allocEv
__ZNK10IOWorkLoop12getMetaClassEv
__ZNK10IOWorkLoop19enableAllInterruptsEv
__ZNK10IOWorkLoop20disableAllInterruptsEv
__ZNK10IOWorkLoop21enableAllEventSourcesEv
__ZNK10IOWorkLoop22disableAllEventSourcesEv
__ZNK10IOWorkLoop6inGateEv
__ZNK10IOWorkLoop8onThreadEv
__ZNK10IOWorkLoop9MetaClass5allocEv
__ZNK10IOWorkLoop9getThreadEv
__ZNK10OSIterator12getMetaClassEv
__ZNK10OSIterator9MetaClass5allocEv
__ZNK11IOCatalogue12getMetaClassEv
__ZNK11IOCatalogue12unloadModuleEP8OSString
__ZNK11IOCatalogue13serializeDataEmP11OSSerialize
__ZNK11IOCatalogue14isModuleLoadedEP12OSDictionary
__ZNK11IOCatalogue14isModuleLoadedEP8OSString
__ZNK11IOCatalogue14isModuleLoadedEPKc
__ZNK11IOCatalogue18getGenerationCountEv
__ZNK11IOCatalogue9MetaClass5allocEv
__ZNK11IOCatalogue9serializeEP11OSSerialize
__ZNK11IODataQueue12getMetaClassEv
__ZNK11IODataQueue9MetaClass5allocEv
__ZNK11IOMemoryMap12getMetaClassEv
__ZNK11IOMemoryMap9MetaClass5allocEv
__ZNK11IOResources11getWorkLoopEv
__ZNK11IOResources12getMetaClassEv
__ZNK11IOResources9MetaClass5allocEv
__ZNK11OSMetaClass11getKmodNameEv
__ZNK11OSMetaClass12getClassNameEv
__ZNK11OSMetaClass12getClassSizeEv
__ZNK11OSMetaClass12getMetaClassEv
__ZNK11OSMetaClass12taggedRetainEPKv
__ZNK11OSMetaClass13checkMetaCastEPK15OSMetaClassBase
__ZNK11OSMetaClass13getSuperClassEv
__ZNK11OSMetaClass13taggedReleaseEPKv
__ZNK11OSMetaClass13taggedReleaseEPKvi
__ZNK11OSMetaClass14getRetainCountEv
__ZNK11OSMetaClass14reservedCalledEi
__ZNK11OSMetaClass16getInstanceCountEv
__ZNK11OSMetaClass18instanceDestructedEv
__ZNK11OSMetaClass19instanceConstructedEv
__ZNK11OSMetaClass6retainEv
__ZNK11OSMetaClass7releaseEi
__ZNK11OSMetaClass7releaseEv
__ZNK11OSMetaClass9serializeEP11OSSerialize
__ZNK11OSSerialize11getCapacityEv
__ZNK11OSSerialize12getMetaClassEv
__ZNK11OSSerialize20getCapacityIncrementEv
__ZNK11OSSerialize4textEv
__ZNK11OSSerialize9MetaClass5allocEv
__ZNK11OSSerialize9getLengthEv
__ZNK12IOCopyMapper12getMetaClassEv
__ZNK12IOCopyMapper9MetaClass5allocEv
__ZNK12IODMACommand12getMetaClassEv
__ZNK12IODMACommand19getMemoryDescriptorEv
__ZNK12IODMACommand9MetaClass5allocEv
__ZNK12IOPMinformee12getMetaClassEv
__ZNK12IOPMinformee9MetaClass5allocEv
__ZNK12IORootParent12getMetaClassEv
__ZNK12IORootParent9MetaClass5allocEv
__ZNK12IOUserClient12getMetaClassEv
__ZNK12IOUserClient9MetaClass5allocEv
__ZNK12OSCollection12getMetaClassEv
__ZNK12OSCollection9MetaClass5allocEv
__ZNK12OSDictionary11getCapacityEv
__ZNK12OSDictionary12getMetaClassEv
__ZNK12OSDictionary12initIteratorEPv
__ZNK12OSDictionary12iteratorSizeEv
__ZNK12OSDictionary20getCapacityIncrementEv
__ZNK12OSDictionary24getNextObjectForIteratorEPvPP8OSObject
__ZNK12OSDictionary8getCountEv
__ZNK12OSDictionary9MetaClass5allocEv
__ZNK12OSDictionary9getObjectEPK8OSString
__ZNK12OSDictionary9getObjectEPK8OSSymbol
__ZNK12OSDictionary9getObjectEPKc
__ZNK12OSDictionary9isEqualToEPK15OSMetaClassBase
__ZNK12OSDictionary9isEqualToEPKS_
__ZNK12OSDictionary9isEqualToEPKS_PK12OSCollection
__ZNK12OSDictionary9serializeEP11OSSerialize
__ZNK12OSOrderedSet11getCapacityEv
__ZNK12OSOrderedSet12getMetaClassEv
__ZNK12OSOrderedSet12initIteratorEPv
__ZNK12OSOrderedSet12iteratorSizeEv
__ZNK12OSOrderedSet13getLastObjectEv
__ZNK12OSOrderedSet14containsObjectEPK15OSMetaClassBase
__ZNK12OSOrderedSet14getFirstObjectEv
__ZNK12OSOrderedSet20getCapacityIncrementEv
__ZNK12OSOrderedSet24getNextObjectForIteratorEPvPP8OSObject
__ZNK12OSOrderedSet6memberEPK15OSMetaClassBase
__ZNK12OSOrderedSet8getCountEv
__ZNK12OSOrderedSet9MetaClass5allocEv
__ZNK12OSOrderedSet9getObjectEj
__ZNK12OSOrderedSet9isEqualToEPK15OSMetaClassBase
__ZNK12OSOrderedSet9isEqualToEPKS_
__ZNK12OSSerializer12getMetaClassEv
__ZNK12OSSerializer9MetaClass5allocEv
__ZNK12OSSerializer9serializeEP11OSSerialize
__ZNK12OSSymbolPool10findSymbolEPKc
__ZNK12_IOMemoryMap12getMetaClassEv
__ZNK12_IOMemoryMap13taggedReleaseEPKv
__ZNK12_IOMemoryMap9MetaClass5allocEv
__ZNK13IOCommandGate12getMetaClassEv
__ZNK13IOCommandGate9MetaClass5allocEv
__ZNK13IOCommandPool12getMetaClassEv
__ZNK13IOCommandPool9MetaClass5allocEv
__ZNK13IOEventSource11getWorkLoopEv
__ZNK13IOEventSource12getMetaClassEv
__ZNK13IOEventSource7getNextEv
__ZNK13IOEventSource8onThreadEv
__ZNK13IOEventSource9MetaClass5allocEv
__ZNK13IOEventSource9getActionEv
__ZNK13IOEventSource9isEnabledEv
__ZNK13_IOServiceJob12getMetaClassEv
__ZNK13_IOServiceJob9MetaClass5allocEv
__ZNK14IOCommandQueue12getMetaClassEv
__ZNK14IOCommandQueue9MetaClass5allocEv
__ZNK14IOMemoryCursor12getMetaClassEv
__ZNK14IOMemoryCursor9MetaClass5allocEv
__ZNK14IOPMrootDomain12getMetaClassEv
__ZNK14IOPMrootDomain9MetaClass5allocEv
__ZNK15IOConditionLock12getConditionEv
__ZNK15IOConditionLock12getMetaClassEv
__ZNK15IOConditionLock16getInterruptibleEv
__ZNK15IOConditionLock9MetaClass5allocEv
__ZNK15IOPMPowerSource12getMetaClassEv
__ZNK15IOPMPowerSource9MetaClass5allocEv
__ZNK15IOPMWorkArbiter12getMetaClassEv
__ZNK15IOPMWorkArbiter9MetaClass5allocEv
__ZNK15IOPanicPlatform12getMetaClassEv
__ZNK15IOPanicPlatform9MetaClass5allocEv
__ZNK15IORegistryEntry11compareNameEP8OSStringPS1_
__ZNK15IORegistryEntry11getLocationEPK15IORegistryPlane
__ZNK15IORegistryEntry11getPropertyEPK8OSString
__ZNK15IORegistryEntry11getPropertyEPK8OSStringPK15IORegistryPlanem
__ZNK15IORegistryEntry11getPropertyEPK8OSSymbol
__ZNK15IORegistryEntry11getPropertyEPK8OSSymbolPK15IORegistryPlanem
__ZNK15IORegistryEntry11getPropertyEPKc
__ZNK15IORegistryEntry11getPropertyEPKcPK15IORegistryPlanem
__ZNK15IORegistryEntry12compareNamesEP8OSObjectPP8OSString
__ZNK15IORegistryEntry12copyLocationEPK15IORegistryPlane
__ZNK15IORegistryEntry12copyPropertyEPK8OSString
__ZNK15IORegistryEntry12copyPropertyEPK8OSStringPK15IORegistryPlanem
__ZNK15IORegistryEntry12copyPropertyEPK8OSSymbol
__ZNK15IORegistryEntry12copyPropertyEPK8OSSymbolPK15IORegistryPlanem
__ZNK15IORegistryEntry12copyPropertyEPKc
__ZNK15IORegistryEntry12copyPropertyEPKcPK15IORegistryPlanem
__ZNK15IORegistryEntry12getMetaClassEv
__ZNK15IORegistryEntry13getChildEntryEPK15IORegistryPlane
__ZNK15IORegistryEntry14applyToParentsEPFvPS_PvES1_PK15IORegistryPlane
__ZNK15IORegistryEntry14copyChildEntryEPK15IORegistryPlane
__ZNK15IORegistryEntry14getParentEntryEPK15IORegistryPlane
__ZNK15IORegistryEntry15applyToChildrenEPFvPS_PvES1_PK15IORegistryPlane
__ZNK15IORegistryEntry15copyParentEntryEPK15IORegistryPlane
__ZNK15IORegistryEntry16getChildIteratorEPK15IORegistryPlane
__ZNK15IORegistryEntry16getPathComponentEPcPiPK15IORegistryPlane
__ZNK15IORegistryEntry16getPropertyTableEv
__ZNK15IORegistryEntry17getParentIteratorEPK15IORegistryPlane
__ZNK15IORegistryEntry19serializePropertiesEP11OSSerialize
__ZNK15IORegistryEntry20getChildSetReferenceEPK15IORegistryPlane
__ZNK15IORegistryEntry21getParentSetReferenceEPK15IORegistryPlane
__ZNK15IORegistryEntry24dictionaryWithPropertiesEv
__ZNK15IORegistryEntry7getNameEPK15IORegistryPlane
__ZNK15IORegistryEntry7getPathEPcPiPK15IORegistryPlane
__ZNK15IORegistryEntry7inPlaneEPK15IORegistryPlane
__ZNK15IORegistryEntry7isChildEPS_PK15IORegistryPlaneb
__ZNK15IORegistryEntry8copyNameEPK15IORegistryPlane
__ZNK15IORegistryEntry8getDepthEPK15IORegistryPlane
__ZNK15IORegistryEntry8hasAliasEPK15IORegistryPlanePcPi
__ZNK15IORegistryEntry8isParentEPS_PK15IORegistryPlaneb
__ZNK15IORegistryEntry8makeLinkEPS_jPK15IORegistryPlane
__ZNK15IORegistryEntry9MetaClass5allocEv
__ZNK15IORegistryEntry9breakLinkEPS_jPK15IORegistryPlane
__ZNK15IORegistryPlane12getMetaClassEv
__ZNK15IORegistryPlane9MetaClass5allocEv
__ZNK15IORegistryPlane9serializeEP11OSSerialize
__ZNK15IOWatchDogTimer12getMetaClassEv
__ZNK15IOWatchDogTimer9MetaClass5allocEv
__ZNK15OSMetaClassBase8metaCastEPK11OSMetaClass
__ZNK15OSMetaClassBase8metaCastEPK8OSString
__ZNK15OSMetaClassBase8metaCastEPK8OSSymbol
__ZNK15OSMetaClassBase8metaCastEPKc
__ZNK15OSMetaClassBase9isEqualToEPKS_
__ZNK15OSMetaClassMeta5allocEv
__ZNK15PMSettingObject12getMetaClassEv
__ZNK15PMSettingObject13taggedReleaseEPKvi
__ZNK15PMSettingObject9MetaClass5allocEv
__ZNK15_IOConfigThread12getMetaClassEv
__ZNK15_IOConfigThread9MetaClass5allocEv
__ZNK16AppleMacIODevice11compareNameEP8OSStringPS1_
__ZNK16AppleMacIODevice12getMetaClassEv
__ZNK16AppleMacIODevice9MetaClass5allocEv
__ZNK16IOKitDiagnostics12getMetaClassEv
__ZNK16IOKitDiagnostics9MetaClass5allocEv
__ZNK16IOKitDiagnostics9serializeEP11OSSerialize
__ZNK16IOPMinformeeList12getMetaClassEv
__ZNK16IOPMinformeeList9MetaClass5allocEv
__ZNK16IOPlatformDevice11compareNameEP8OSStringPS1_
__ZNK16IOPlatformDevice12getMetaClassEv
__ZNK16IOPlatformDevice9MetaClass5allocEv
__ZNK16IOPlatformExpert12getMetaClassEv
__ZNK16IOPlatformExpert14compareNubNameEPK9IOServiceP8OSStringPS4_
__ZNK16IOPlatformExpert9MetaClass5allocEv
__ZNK16IORangeAllocator12getMetaClassEv
__ZNK16IORangeAllocator9MetaClass5allocEv
__ZNK16IORangeAllocator9serializeEP11OSSerialize
__ZNK17IOBigMemoryCursor12getMetaClassEv
__ZNK17IOBigMemoryCursor9MetaClass5allocEv
__ZNK17IONVRAMController12getMetaClassEv
__ZNK17IONVRAMController9MetaClass5allocEv
__ZNK17IOPolledInterface12getMetaClassEv
__ZNK17IOPolledInterface9MetaClass5allocEv
__ZNK17IOPowerConnection12getMetaClassEv
__ZNK17IOPowerConnection9MetaClass5allocEv
__ZNK18IODTPlatformExpert12getMetaClassEv
__ZNK18IODTPlatformExpert14compareNubNameEPK9IOServiceP8OSStringPS4_
__ZNK18IODTPlatformExpert9MetaClass5allocEv
__ZNK18IOMemoryDescriptor12getDirectionEv
__ZNK18IOMemoryDescriptor12getMetaClassEv
__ZNK18IOMemoryDescriptor19dmaCommandOperationEmPvj
__ZNK18IOMemoryDescriptor9MetaClass5allocEv
__ZNK18IOMemoryDescriptor9getLengthEv
__ZNK18IOPMchangeNoteList12getMetaClassEv
__ZNK18IOPMchangeNoteList9MetaClass5allocEv
__ZNK18IORegistryIterator12getMetaClassEv
__ZNK18IORegistryIterator9MetaClass5allocEv
__ZNK18IOTimerEventSource12getMetaClassEv
__ZNK18IOTimerEventSource9MetaClass5allocEv
__ZNK18IOUserNotification12getMetaClassEv
__ZNK18IOUserNotification9MetaClass5allocEv
__ZNK18_IOServiceNotifier12getMetaClassEv
__ZNK18_IOServiceNotifier9MetaClass5allocEv
__ZNK19ApplePlatformExpert12getMetaClassEv
__ZNK19ApplePlatformExpert9MetaClass5allocEv
__ZNK19IODBDMAMemoryCursor12getMetaClassEv
__ZNK19IODBDMAMemoryCursor9MetaClass5allocEv
__ZNK19IOPMPowerSourceList12getMetaClassEv
__ZNK19IOPMPowerSourceList9MetaClass5allocEv
__ZNK19IOPMPowerStateQueue12getMetaClassEv
__ZNK19IOPMPowerStateQueue9MetaClass5allocEv
__ZNK20IOLittleMemoryCursor12getMetaClassEv
__ZNK20IOLittleMemoryCursor9MetaClass5allocEv
__ZNK20OSCollectionIterator12getMetaClassEv
__ZNK20OSCollectionIterator9MetaClass5allocEv
__ZNK20RootDomainUserClient12getMetaClassEv
__ZNK20RootDomainUserClient9MetaClass5allocEv
__ZNK21IOInterruptController12getMetaClassEv
__ZNK21IOInterruptController9MetaClass5allocEv
__ZNK21IONaturalMemoryCursor12getMetaClassEv
__ZNK21IONaturalMemoryCursor9MetaClass5allocEv
__ZNK21IOSubMemoryDescriptor12getMetaClassEv
__ZNK21IOSubMemoryDescriptor19dmaCommandOperationEmPvj
__ZNK21IOSubMemoryDescriptor9MetaClass5allocEv
__ZNK21IOSubMemoryDescriptor9serializeEP11OSSerialize
__ZNK22IOInterruptEventSource11getIntIndexEv
__ZNK22IOInterruptEventSource11getProviderEv
__ZNK22IOInterruptEventSource12getMetaClassEv
__ZNK22IOInterruptEventSource14getAutoDisableEv
__ZNK22IOInterruptEventSource9MetaClass5allocEv
__ZNK22IOPlatformExpertDevice11compareNameEP8OSStringPS1_
__ZNK22IOPlatformExpertDevice11getWorkLoopEv
__ZNK22IOPlatformExpertDevice12getMetaClassEv
__ZNK22IOPlatformExpertDevice9MetaClass5allocEv
__ZNK22_IOOpenServiceIterator12getMetaClassEv
__ZNK22_IOOpenServiceIterator9MetaClass5allocEv
__ZNK23IOMultiMemoryDescriptor12getMetaClassEv
__ZNK23IOMultiMemoryDescriptor9MetaClass5allocEv
__ZNK24IOBufferMemoryDescriptor11getCapacityEv
__ZNK24IOBufferMemoryDescriptor12getMetaClassEv
__ZNK24IOBufferMemoryDescriptor9MetaClass5allocEv
__ZNK24IOCPUInterruptController12getMetaClassEv
__ZNK24IOCPUInterruptController9MetaClass5allocEv
__ZNK25IOGeneralMemoryDescriptor12getMetaClassEv
__ZNK25IOGeneralMemoryDescriptor19dmaCommandOperationEmPvj
__ZNK25IOGeneralMemoryDescriptor9MetaClass5allocEv
__ZNK25IOGeneralMemoryDescriptor9serializeEP11OSSerialize
__ZNK25IOServiceUserNotification12getMetaClassEv
__ZNK25IOServiceUserNotification9MetaClass5allocEv
__ZNK26_IOServiceInterestNotifier12getMetaClassEv
__ZNK26_IOServiceInterestNotifier9MetaClass5allocEv
__ZNK27IOSharedInterruptController12getMetaClassEv
__ZNK27IOSharedInterruptController9MetaClass5allocEv
__ZNK28IOFilterInterruptEventSource12getMetaClassEv
__ZNK28IOFilterInterruptEventSource15getFilterActionEv
__ZNK28IOFilterInterruptEventSource9MetaClass5allocEv
__ZNK32IOServiceMessageUserNotification12getMetaClassEv
__ZNK32IOServiceMessageUserNotification9MetaClass5allocEv
__ZNK5IOCPU11getPropertyEPK8OSSymbol
__ZNK5IOCPU12getMetaClassEv
__ZNK5IOCPU19serializePropertiesEP11OSSerialize
__ZNK5IOCPU9MetaClass5allocEv
__ZNK5OSSet11getCapacityEv
__ZNK5OSSet12getAnyObjectEv
__ZNK5OSSet12getMetaClassEv
__ZNK5OSSet12initIteratorEPv
__ZNK5OSSet12iteratorSizeEv
__ZNK5OSSet14containsObjectEPK15OSMetaClassBase
__ZNK5OSSet20getCapacityIncrementEv
__ZNK5OSSet24getNextObjectForIteratorEPvPP8OSObject
__ZNK5OSSet6memberEPK15OSMetaClassBase
__ZNK5OSSet8getCountEv
__ZNK5OSSet9MetaClass5allocEv
__ZNK5OSSet9isEqualToEPK15OSMetaClassBase
__ZNK5OSSet9isEqualToEPKS_
__ZNK5OSSet9serializeEP11OSSerialize
__ZNK6OSData11getCapacityEv
__ZNK6OSData12getMetaClassEv
__ZNK6OSData14getBytesNoCopyEjj
__ZNK6OSData14getBytesNoCopyEv
__ZNK6OSData20getCapacityIncrementEv
__ZNK6OSData9MetaClass5allocEv
__ZNK6OSData9getLengthEv
__ZNK6OSData9isEqualToEPK15OSMetaClassBase
__ZNK6OSData9isEqualToEPK8OSString
__ZNK6OSData9isEqualToEPKS_
__ZNK6OSData9isEqualToEPKvj
__ZNK6OSData9serializeEP11OSSerialize
__ZNK7OSArray11getCapacityEv
__ZNK7OSArray12getMetaClassEv
__ZNK7OSArray12initIteratorEPv
__ZNK7OSArray12iteratorSizeEv
__ZNK7OSArray13getLastObjectEv
__ZNK7OSArray20getCapacityIncrementEv
__ZNK7OSArray20getNextIndexOfObjectEPK15OSMetaClassBasej
__ZNK7OSArray24getNextObjectForIteratorEPvPP8OSObject
__ZNK7OSArray8getCountEv
__ZNK7OSArray9MetaClass5allocEv
__ZNK7OSArray9getObjectEj
__ZNK7OSArray9isEqualToEPK15OSMetaClassBase
__ZNK7OSArray9isEqualToEPKS_
__ZNK7OSArray9serializeEP11OSSerialize
__ZNK8AppleCPU12getMetaClassEv
__ZNK8AppleCPU9MetaClass5allocEv
__ZNK8AppleNMI12getMetaClassEv
__ZNK8AppleNMI9MetaClass5allocEv
__ZNK8IOMapper12getMetaClassEv
__ZNK8IOMapper13getBypassMaskEPy
__ZNK8IOMapper9MetaClass5allocEv
__ZNK8IOPMpriv12getMetaClassEv
__ZNK8IOPMpriv9MetaClass5allocEv
__ZNK8IOPMpriv9serializeEP11OSSerialize
__ZNK8IOPMprot12getMetaClassEv
__ZNK8IOPMprot9MetaClass5allocEv
__ZNK8IOPMprot9serializeEP11OSSerialize
__ZNK8IOSyncer12getMetaClassEv
__ZNK8IOSyncer9MetaClass5allocEv
__ZNK8OSNumber12getMetaClassEv
__ZNK8OSNumber12numberOfBitsEv
__ZNK8OSNumber13numberOfBytesEv
__ZNK8OSNumber17unsigned8BitValueEv
__ZNK8OSNumber18unsigned16BitValueEv
__ZNK8OSNumber18unsigned32BitValueEv
__ZNK8OSNumber18unsigned64BitValueEv
__ZNK8OSNumber9MetaClass5allocEv
__ZNK8OSNumber9isEqualToEPK15OSMetaClassBase
__ZNK8OSNumber9isEqualToEPKS_
__ZNK8OSNumber9serializeEP11OSSerialize
__ZNK8OSObject12getMetaClassEv
__ZNK8OSObject12taggedRetainEPKv
__ZNK8OSObject13taggedReleaseEPKv
__ZNK8OSObject13taggedReleaseEPKvi
__ZNK8OSObject14getRetainCountEv
__ZNK8OSObject6retainEv
__ZNK8OSObject7releaseEi
__ZNK8OSObject7releaseEv
__ZNK8OSObject9MetaClass5allocEv
__ZNK8OSObject9serializeEP11OSSerialize
__ZNK8OSString12getMetaClassEv
__ZNK8OSString16getCStringNoCopyEv
__ZNK8OSString7getCharEj
__ZNK8OSString9MetaClass5allocEv
__ZNK8OSString9getLengthEv
__ZNK8OSString9isEqualToEPK15OSMetaClassBase
__ZNK8OSString9isEqualToEPK6OSData
__ZNK8OSString9isEqualToEPKS_
__ZNK8OSString9isEqualToEPKc
__ZNK8OSString9serializeEP11OSSerialize
__ZNK8OSSymbol12getMetaClassEv
__ZNK8OSSymbol13taggedReleaseEPKv
__ZNK8OSSymbol13taggedReleaseEPKvi
__ZNK8OSSymbol9MetaClass5allocEv
__ZNK8OSSymbol9isEqualToEPK15OSMetaClassBase
__ZNK8OSSymbol9isEqualToEPKS_
__ZNK8OSSymbol9isEqualToEPKc
__ZNK9IOCommand12getMetaClassEv
__ZNK9IOCommand9MetaClass5allocEv
__ZNK9IODTNVRAM11getPropertyEPK8OSSymbol
__ZNK9IODTNVRAM11getPropertyEPKc
__ZNK9IODTNVRAM12getMetaClassEv
__ZNK9IODTNVRAM17getOFVariablePermEPK8OSSymbol
__ZNK9IODTNVRAM17getOFVariableTypeEPK8OSSymbol
__ZNK9IODTNVRAM19serializePropertiesEP11OSSerialize
__ZNK9IODTNVRAM9MetaClass5allocEv
__ZNK9IOService10isInactiveEv
__ZNK9IOService11getProviderEv
__ZNK9IOService11getWorkLoopEv
__ZNK9IOService12getMetaClassEv
__ZNK9IOService12handleIsOpenEPKS_
__ZNK9IOService17getClientIteratorEv
__ZNK9IOService19getProviderIteratorEv
__ZNK9IOService19serializePropertiesEP11OSSerialize
__ZNK9IOService21getOpenClientIteratorEv
__ZNK9IOService23getOpenProviderIteratorEv
__ZNK9IOService6isOpenEPKS_
__ZNK9IOService8getStateEv
__ZNK9IOService9MetaClass5allocEv
__ZNK9IOService9getClientEv
__ZNK9OSBoolean12getMetaClassEv
__ZNK9OSBoolean12taggedRetainEPKv
__ZNK9OSBoolean13taggedReleaseEPKvi
__ZNK9OSBoolean6isTrueEv
__ZNK9OSBoolean7isFalseEv
__ZNK9OSBoolean8getValueEv
__ZNK9OSBoolean9MetaClass5allocEv
__ZNK9OSBoolean9isEqualToEPK15OSMetaClassBase
__ZNK9OSBoolean9isEqualToEPKS_
__ZNK9OSBoolean9serializeEP11OSSerialize
__ZTV10AppleMacIO
__ZTV10AppleNVRAM
__ZTV10IOMachPort
__ZTV10IONotifier
__ZTV10IOWorkLoop
__ZTV10OSIterator
__ZTV11IOCatalogue
__ZTV11IODataQueue
__ZTV11IOMemoryMap
__ZTV11IOResources
__ZTV11OSMetaClass
__ZTV11OSSerialize
__ZTV12IOCopyMapper
__ZTV12IODMACommand
__ZTV12IOPMinformee
__ZTV12IORootParent
__ZTV12IOUserClient
__ZTV12OSCollection
__ZTV12OSDictionary
__ZTV12OSOrderedSet
__ZTV12OSSerializer
__ZTV12OSSymbolPool
__ZTV12_IOMemoryMap
__ZTV13IOCommandGate
__ZTV13IOCommandPool
__ZTV13IOEventSource
__ZTV13_IOServiceJob
__ZTV14IOCommandQueue
__ZTV14IOMemoryCursor
__ZTV14IOPMrootDomain
__ZTV15IOConditionLock
__ZTV15IOPMPowerSource
__ZTV15IOPMWorkArbiter
__ZTV15IOPanicPlatform
__ZTV15IORegistryEntry
__ZTV15IORegistryPlane
__ZTV15IOWatchDogTimer
__ZTV15OSMetaClassBase
__ZTV15OSMetaClassMeta
__ZTV15PMSettingObject
__ZTV15_IOConfigThread
__ZTV16AppleMacIODevice
__ZTV16IOKitDiagnostics
__ZTV16IOPMinformeeList
__ZTV16IOPlatformDevice
__ZTV16IOPlatformExpert
__ZTV16IORangeAllocator
__ZTV17IOBigMemoryCursor
__ZTV17IONVRAMController
__ZTV17IOPolledInterface
__ZTV17IOPowerConnection
__ZTV18IODTPlatformExpert
__ZTV18IOMemoryDescriptor
__ZTV18IOPMchangeNoteList
__ZTV18IORegistryIterator
__ZTV18IOTimerEventSource
__ZTV18IOUserNotification
__ZTV18_IOServiceNotifier
__ZTV19ApplePlatformExpert
__ZTV19IODBDMAMemoryCursor
__ZTV19IOPMPowerSourceList
__ZTV19IOPMPowerStateQueue
__ZTV20IOLittleMemoryCursor
__ZTV20OSCollectionIterator
__ZTV20RootDomainUserClient
__ZTV21IOInterruptController
__ZTV21IONaturalMemoryCursor
__ZTV21IOSubMemoryDescriptor
__ZTV22IOInterruptEventSource
__ZTV22IOPlatformExpertDevice
__ZTV22_IOOpenServiceIterator
__ZTV23IOMultiMemoryDescriptor
__ZTV24IOBufferMemoryDescriptor
__ZTV24IOCPUInterruptController
__ZTV25IOGeneralMemoryDescriptor
__ZTV25IOServiceUserNotification
__ZTV26_IOServiceInterestNotifier
__ZTV27IOSharedInterruptController
__ZTV28IOFilterInterruptEventSource
__ZTV32IOServiceMessageUserNotification
__ZTV5IOCPU
__ZTV5OSSet
__ZTV6OSData
__ZTV7OSArray
__ZTV8AppleCPU
__ZTV8AppleNMI
__ZTV8IOMapper
__ZTV8IOPMpriv
__ZTV8IOPMprot
__ZTV8IOSyncer
__ZTV8OSNumber
__ZTV8OSObject
__ZTV8OSString
__ZTV8OSSymbol
__ZTV9IOCommand
__ZTV9IODTNVRAM
__ZTV9IOService
__ZTV9OSBoolean
__ZTVN10AppleMacIO9MetaClassE
__ZTVN10AppleNVRAM9MetaClassE
__ZTVN10IOMachPort9MetaClassE
__ZTVN10IONotifier9MetaClassE
__ZTVN10IOWorkLoop9MetaClassE
__ZTVN10OSIterator9MetaClassE
__ZTVN11IOCatalogue9MetaClassE
__ZTVN11IODataQueue9MetaClassE
__ZTVN11IOMemoryMap9MetaClassE
__ZTVN11IOResources9MetaClassE
__ZTVN11OSSerialize9MetaClassE
__ZTVN12IOCopyMapper9MetaClassE
__ZTVN12IODMACommand9MetaClassE
__ZTVN12IOPMinformee9MetaClassE
__ZTVN12IORootParent9MetaClassE
__ZTVN12IOUserClient9MetaClassE
__ZTVN12OSCollection9MetaClassE
__ZTVN12OSDictionary9MetaClassE
__ZTVN12OSOrderedSet9MetaClassE
__ZTVN12OSSerializer9MetaClassE
__ZTVN12_IOMemoryMap9MetaClassE
__ZTVN13IOCommandGate9MetaClassE
__ZTVN13IOCommandPool9MetaClassE
__ZTVN13IOEventSource9MetaClassE
__ZTVN13_IOServiceJob9MetaClassE
__ZTVN14IOCommandQueue9MetaClassE
__ZTVN14IOMemoryCursor9MetaClassE
__ZTVN14IOPMrootDomain9MetaClassE
__ZTVN15IOConditionLock9MetaClassE
__ZTVN15IOPMPowerSource9MetaClassE
__ZTVN15IOPMWorkArbiter9MetaClassE
__ZTVN15IOPanicPlatform9MetaClassE
__ZTVN15IORegistryEntry9MetaClassE
__ZTVN15IORegistryPlane9MetaClassE
__ZTVN15IOWatchDogTimer9MetaClassE
__ZTVN15PMSettingObject9MetaClassE
__ZTVN15_IOConfigThread9MetaClassE
__ZTVN16AppleMacIODevice9MetaClassE
__ZTVN16IOKitDiagnostics9MetaClassE
__ZTVN16IOPMinformeeList9MetaClassE
__ZTVN16IOPlatformDevice9MetaClassE
__ZTVN16IOPlatformExpert9MetaClassE
__ZTVN16IORangeAllocator9MetaClassE
__ZTVN17IOBigMemoryCursor9MetaClassE
__ZTVN17IONVRAMController9MetaClassE
__ZTVN17IOPolledInterface9MetaClassE
__ZTVN17IOPowerConnection9MetaClassE
__ZTVN18IODTPlatformExpert9MetaClassE
__ZTVN18IOMemoryDescriptor9MetaClassE
__ZTVN18IOPMchangeNoteList9MetaClassE
__ZTVN18IORegistryIterator9MetaClassE
__ZTVN18IOTimerEventSource9MetaClassE
__ZTVN18IOUserNotification9MetaClassE
__ZTVN18_IOServiceNotifier9MetaClassE
__ZTVN19ApplePlatformExpert9MetaClassE
__ZTVN19IODBDMAMemoryCursor9MetaClassE
__ZTVN19IOPMPowerSourceList9MetaClassE
__ZTVN19IOPMPowerStateQueue9MetaClassE
__ZTVN20IOLittleMemoryCursor9MetaClassE
__ZTVN20OSCollectionIterator9MetaClassE
__ZTVN20RootDomainUserClient9MetaClassE
__ZTVN21IOInterruptController9MetaClassE
__ZTVN21IONaturalMemoryCursor9MetaClassE
__ZTVN21IOSubMemoryDescriptor9MetaClassE
__ZTVN22IOInterruptEventSource9MetaClassE
__ZTVN22IOPlatformExpertDevice9MetaClassE
__ZTVN22_IOOpenServiceIterator9MetaClassE
__ZTVN23IOMultiMemoryDescriptor9MetaClassE
__ZTVN24IOBufferMemoryDescriptor9MetaClassE
__ZTVN24IOCPUInterruptController9MetaClassE
__ZTVN25IOGeneralMemoryDescriptor9MetaClassE
__ZTVN25IOServiceUserNotification9MetaClassE
__ZTVN26_IOServiceInterestNotifier9MetaClassE
__ZTVN27IOSharedInterruptController9MetaClassE
__ZTVN28IOFilterInterruptEventSource9MetaClassE
__ZTVN32IOServiceMessageUserNotification9MetaClassE
__ZTVN5IOCPU9MetaClassE
__ZTVN5OSSet9MetaClassE
__ZTVN6OSData9MetaClassE
__ZTVN7OSArray9MetaClassE
__ZTVN8AppleCPU9MetaClassE
__ZTVN8AppleNMI9MetaClassE
__ZTVN8IOMapper9MetaClassE
__ZTVN8IOPMpriv9MetaClassE
__ZTVN8IOPMprot9MetaClassE
__ZTVN8IOSyncer9MetaClassE
__ZTVN8OSNumber9MetaClassE
__ZTVN8OSObject9MetaClassE
__ZTVN8OSString9MetaClassE
__ZTVN8OSSymbol9MetaClassE
__ZTVN9IOCommand9MetaClassE
__ZTVN9IODTNVRAM9MetaClassE
__ZTVN9IOService9MetaClassE
__ZTVN9OSBoolean9MetaClassE
__ZdlPv
__Znwm
___cxa_pure_virtual
___disable_threadsignal
___doprnt
___posix_sem_syscall_return
___pthread_canceled
___pthread_kill
___pthread_markcancel
___semwait_signal
___sysctl
__cpu_capabilities
__disable_preemption
__dist_code
__doprnt
__doprnt_truncates
__eSynchronizeIO
__enable_preemption
__enable_preemption_no_check
__giDebugLogDataInternal
__giDebugLogInternal
__giDebugReserved1
__giDebugReserved2
__length_code
__longjmp
__mach_make_memory_entry
__map_enter_debug
__mh_execute_header
__mutex_assert
__mutex_lock
__mutex_try
__printf
__serial_getc
__setjmp
__start
__start_cpu
__tr_align
__tr_flush_block
__tr_init
__tr_stored_block
__tr_tally
__vm_external_state_get
_aaFPopTable
_aarp_chk_addr
_aarp_init1
_aarp_init2
_aarp_rcv_pkt
_aarp_sched_probe
_aarp_send_data
_aarp_table
_abort_panic_transfer
_abs
_absolutetime_to_microtime
_absolutetime_to_nanoseconds
_absolutetime_to_nanotime
_accept
_access
_access_extended
_acct
_acct_process
_acctchkfreq
_acctp
_acctresume
_acctsuspend
_acctwatch
_acctwatch_funnel
_acknowledgeSleepWakeNotification
_act_abort
_act_execute_returnhandlers
_act_get_state
_act_machine_sv_free
_act_set_apc
_act_set_astbsd
_act_set_state
_act_thread_catt
_act_thread_cfree
_act_thread_csave
_active_debugger
_add_blocks
_add_ddp_handler
_add_from_mkext_function
_add_fsevent
_add_pcbuffer
_add_profil
_add_to_time_wait
_add_to_time_wait_locked
_addlog
_addupc_task
_adjtime
_adjust_vm_object_cache
_adler32
_adr
_adspAllocateCCB
_adspAssignSocket
_adspAttention
_adspCLDeny
_adspCLListen
_adspClose
_adspDeassignSocket
_adspGlobal
_adspInit
_adspInited
_adspMode
_adspNewCID
_adspOpen
_adspOptions
_adspPacket
_adspRead
_adspReadAttention
_adspReadHandler
_adspRelease
_adspReset
_adspStatus
_adspWrite
_adspWriteHandler
_adsp_close
_adsp_dequeue_ccb
_adsp_input
_adsp_inputC
_adsp_inputQ
_adsp_open
_adsp_pidM
_adsp_readable
_adsp_rput
_adsp_sendddp
_adsp_window
_adsp_wput
_adsp_writeable
_adspioc_ack
_advisory_read
_aes_decrypt_cbc
_aes_decrypt_key
_aes_decrypt_key128
_aes_decrypt_key192
_aes_decrypt_key256
_aes_encrypt_cbc
_aes_encrypt_key
_aes_encrypt_key128
_aes_encrypt_key192
_aes_encrypt_key256
_age_is_stale
_ah4_calccksum
_ah4_input
_ah4_output
_ah6_calccksum
_ah6_ctlinput
_ah6_input
_ah6_output
_ah_algorithm_lookup
_ah_hdrlen
_ah_hdrsiz
_aio_cancel
_aio_error
_aio_fsync
_aio_max_requests
_aio_max_requests_per_process
_aio_read
_aio_return
_aio_suspend
_aio_worker_threads
_aio_write
_alert
_alert_done
_all_zones_lock
_alloc_io_buf
_allocbuf
_allow_clustered_pageouts
_allproc
_always_do_fullfsync
_app_profile
_append_copy
_appleClut8
_apple_hwcksum_rx
_apple_hwcksum_tx
_appletalk_hack_start
_appletalk_inited
_argstrcpy
_argstrcpy2
_around
_arp_ifinit
_arp_ip_handle_input
_arp_lookup_ip
_asp_ack_reply
_asp_clock
_asp_clock_locked
_asp_close
_asp_init
_asp_inpC
_asp_nak_reply
_asp_open
_asp_pack_bdsp
_asp_readable
_asp_scbQ
_asp_wput
_assert_wait
_assert_wait_deadline
_assert_wait_possible
_assert_wait_timeout
_ast_check
_ast_init
_ast_pending
_ast_taken
_astbsd_on
_at_control
_at_ddp_brt
_at_ddp_stats
_at_ether_input
_at_ifQueueHd
_at_interfaces
_at_ioctl
_at_memzone_init
_at_pcballoc
_at_pcbbind
_at_pcbdetach
_at_reg_mcast
_at_state
_at_unreg_mcast
_atalk_closeref
_atalk_dominit
_atalk_enablew
_atalk_flush
_atalk_getref
_atalk_getref_locked
_atalk_gettrace
_atalk_load
_atalk_lock
_atalk_mutex
_atalk_notify
_atalk_notify_sel
_atalk_openref
_atalk_peek
_atalk_post_msg
_atalk_putnext
_atalk_settrace
_atalk_unload
_atalk_unlock
_atalkdom
_atalkdomain
_atalkintrq
_atalksw
_atoi
_atoi_term
_atomic_add32
_atomic_add64
_atomic_dequeue32_on32
_atomic_dequeue32_on64
_atomic_dequeue64
_atomic_enqueue32
_atomic_enqueue64
_atomic_switch_syscall
_atomic_switch_trap
_atp_bind
_atp_build_release
_atp_cancel_req
_atp_close
_atp_delete_free_clusters
_atp_dequeue_atp
_atp_drop_req
_atp_free
_atp_free_cluster_list
_atp_free_cluster_timeout_set
_atp_free_list
_atp_init
_atp_inited
_atp_input
_atp_inputQ
_atp_iocack
_atp_iocnak
_atp_link
_atp_lomask
_atp_mask
_atp_need_rel
_atp_open
_atp_pidM
_atp_rcb_alloc
_atp_rcb_data
_atp_rcb_free
_atp_rcb_free_list
_atp_rcb_timer
_atp_reply
_atp_req_ind
_atp_req_timeout
_atp_resource_m
_atp_retry_req
_atp_rput
_atp_rsp_ind
_atp_send
_atp_send_replies
_atp_send_req
_atp_send_rsp
_atp_state_data
_atp_tid
_atp_timout
_atp_trans_abort
_atp_trans_alloc
_atp_trans_free
_atp_trans_free_list
_atp_treq_event
_atp_trp_clock
_atp_trp_clock_locked
_atp_unlink
_atp_untimout
_atp_used_list
_atp_wput
_atp_x_done
_atp_x_done_locked
_atpcb_zone
_attachData
_attrcalcsize
_au_evclassmap_init
_au_evclassmap_insert
_au_event_class
_au_preselect
_au_to_arg
_au_to_arg32
_au_to_arg64
_au_to_attr
_au_to_attr32
_au_to_attr64
_au_to_data
_au_to_exec_args
_au_to_exec_env
_au_to_exit
_au_to_groups
_au_to_in_addr
_au_to_in_addr_ex
_au_to_ip
_au_to_ipc
_au_to_ipc_perm
_au_to_iport
_au_to_newgroups
_au_to_opaque
_au_to_path
_au_to_process
_au_to_process32
_au_to_process32_ex
_au_to_process64
_au_to_process64_ex
_au_to_process_ex
_au_to_return
_au_to_return32
_au_to_return64
_au_to_seq
_au_to_sock_inet
_au_to_sock_inet128
_au_to_sock_inet32
_au_to_sock_unix
_au_to_socket
_au_to_socket_ex_128
_au_to_socket_ex_32
_au_to_subject
_au_to_subject32
_au_to_subject32_ex
_au_to_subject64
_au_to_subject64_ex
_au_to_subject_ex
_au_to_text
_au_to_trailer
_audit
_audit_abort
_audit_arg_addr
_audit_arg_auditinfo
_audit_arg_auditon
_audit_arg_auid
_audit_arg_cmd
_audit_arg_ctlname
_audit_arg_dev
_audit_arg_fd
_audit_arg_fflags
_audit_arg_file
_audit_arg_gid
_audit_arg_groupset
_audit_arg_len
_audit_arg_login
_audit_arg_mach_port1
_audit_arg_mach_port2
_audit_arg_mask
_audit_arg_mode
_audit_arg_owner
_audit_arg_pid
_audit_arg_posix_ipc_perm
_audit_arg_process
_audit_arg_signum
_audit_arg_sockaddr
_audit_arg_socket
_audit_arg_svipc_addr
_audit_arg_svipc_cmd
_audit_arg_svipc_id
_audit_arg_svipc_perm
_audit_arg_text
_audit_arg_uid
_audit_arg_upath
_audit_arg_value
_audit_arg_vnpath
_audit_arg_vnpath_withref
_audit_commit
_audit_enabled
_audit_init
_audit_mach_syscall_enter
_audit_mach_syscall_exit
_audit_new
_audit_shutdown
_audit_suspended
_audit_syscall_enter
_audit_syscall_exit
_audit_sysclose
_audit_triggers
_auditctl
_auditon
_auditon_command_event
_aurp_ifID
_avail_remaining
_avenrun
_averunnable
_b_to_q
_backchain
_backing_store_add
_backing_store_alloc
_backing_store_list
_backing_store_lookup
_backing_store_release_trigger_disable
_backpocket
_badport_bandlim
_bbSetRupt
_bb_disable_bluebox
_bb_enable_bluebox
_bb_settaskenv
_bcd2bin_data
_bcmp
_bcopy
_bcopy_64
_bcopy_970
_bcopy_g3
_bcopy_g4
_bcopy_nc
_bcopy_nc_nop_if_32bit
_bcopy_nop_if_32bit
_bcopy_phys
_bcopy_physvir_32
_bdevsw
_bdevsw_add
_bdevsw_isfree
_bdevsw_remove
_bdevvp
_be_tracing
_bigcopy_970
_bin2bcd_data
_bind
_blaundrycnt
_boot
_boot_args_buf
_boothowto
_bootp
_boottime_sec
_both
_bpf_filter
_bpf_init
_bpf_mtap
_bpf_tap
_bpf_tap_callback
_bpf_validate
_bpfattach
_bpfclose
_bpfdetach
_bpfioctl
_bpfopen
_bpfpoll
_bpfread
_bpfwrite
_branch_tracing_enabled
_bs_commit
_bs_get_global_clsize
_bs_global_info
_bs_initialize
_bs_low
_bs_more_space
_bs_no_paging_space
_bs_port_table
_bs_set_default_clsize
_bsd_ast
_bsd_autoconf
_bsd_bufferinit
_bsd_close_page_cache_files
_bsd_exception
_bsd_hardclock
_bsd_hardclockinit
_bsd_init
_bsd_init_task
_bsd_log_init
_bsd_log_lock
_bsd_log_spinlock
_bsd_log_unlock
_bsd_mbuf_cluster_reserve
_bsd_open_page_cache_files
_bsd_pageable_map
_bsd_read_page_cache_file
_bsd_search_page_cache_data_base
_bsd_startupearly
_bsd_timeout
_bsd_untimeout
_bsd_uprofil
_bsd_utaskbootstrap
_bsd_write_page_cache_file
_bsdinit_task
_bsm_free_q
_bsm_rec_verify
_buf
_buf_acquire
_buf_alloc
_buf_bawrite
_buf_bdwrite
_buf_biodone
_buf_biowait
_buf_blkno
_buf_bread
_buf_breadn
_buf_brelse
_buf_bwrite
_buf_callback
_buf_clear
_buf_clearflags
_buf_clone
_buf_count
_buf_dataptr
_buf_device
_buf_dirtyend
_buf_dirtyoff
_buf_drop
_buf_drvdata
_buf_error
_buf_flags
_buf_flushdirtyblks
_buf_free
_buf_fromcache
_buf_fsprivate
_buf_getblk
_buf_geteblk
_buf_invalblkno
_buf_invalidateblks
_buf_iterate
_buf_lblkno
_buf_map
_buf_markaged
_buf_markdelayed
_buf_markeintr
_buf_markinvalid
_buf_meta_bread
_buf_meta_breadn
_buf_proc
_buf_rcred
_buf_reset
_buf_resid
_buf_setblkno
_buf_setcallback
_buf_setcount
_buf_setdataptr
_buf_setdevice
_buf_setdirtyend
_buf_setdirtyoff
_buf_setdrvdata
_buf_seterror
_buf_setfilter
_buf_setflags
_buf_setfsprivate
_buf_setlblkno
_buf_setresid
_buf_setsize
_buf_setupl
_buf_setvnode
_buf_size
_buf_strategy
_buf_unmap
_buf_upl
_buf_uploffset
_buf_valid
_buf_vnode
_buf_wcred
_buffer_map
_bufferhdr_map
_bufhash
_bufhashtbl
_bufstats
_build_path
_busyprt
_byte_swap_cgin
_byte_swap_cgout
_byte_swap_csum
_byte_swap_dir_block_in
_byte_swap_dir_block_out
_byte_swap_dir_out
_byte_swap_direct
_byte_swap_dirtemplate_in
_byte_swap_inode_in
_byte_swap_inode_out
_byte_swap_ints
_byte_swap_longlongs
_byte_swap_minidir_in
_byte_swap_sbin
_byte_swap_sbout
_byte_swap_shorts
_bzero
_bzero_128
_bzero_32
_bzero_nc
_bzero_phys
_c_incoming_interrupts
_c_mach_msg_trap_switch_fast
_c_mmot_combined_S_R
_c_mmot_kernel_send
_c_syscalls_mach
_c_syscalls_unix
_c_thr_exc_raise
_c_thr_exc_raise_state
_c_thr_exc_raise_state_id
_c_thread_invoke_csw
_c_thread_invoke_hits
_c_thread_invoke_misses
_c_thread_invoke_same
_c_thread_invoke_same_cont
_c_tsk_exc_raise
_c_tsk_exc_raise_state
_c_tsk_exc_raise_state_id
_c_vm_page_grab_fictitious
_c_vm_page_more_fictitious
_c_vm_page_release_fictitious
_cacheDisable
_cacheInit
_cache_enter
_cache_lookup
_cache_lookup_path
_cache_purge
_cache_purge_negatives
_cache_purgevfs
_cached_sock_alloc
_cached_sock_count
_cached_sock_free
_calcRecvQ
_calcSendQ
_calcru
_calend_getattr
_calend_gettime
_calend_ops
_call_continuation
_call_thread_block
_call_thread_unblock
_callout
_canon_path
_cansignal
_cantrace
_cast128_decrypt_round12
_cast128_decrypt_round16
_cast128_encrypt_round12
_cast128_encrypt_round16
_catch_exc_subsystem
_catch_exception_raise
_catch_exception_raise_state
_catch_exception_raise_state_identity
_catq
_cause_ast_check
_cbfpend
_cbfr_boot_cpu
_ccb_used_list
_cd9660_blktooff
_cd9660_blockmap
_cd9660_cdxaop_entries
_cd9660_cdxaop_opv_desc
_cd9660_cdxaop_p
_cd9660_close
_cd9660_defattr
_cd9660_deftstamp
_cd9660_enotsupp
_cd9660_fhtovp
_cd9660_fifoop_entries
_cd9660_fifoop_opv_desc
_cd9660_fifoop_p
_cd9660_getattr
_cd9660_getattrlist
_cd9660_ihashget
_cd9660_ihashins
_cd9660_ihashrem
_cd9660_inactive
_cd9660_init
_cd9660_ioctl
_cd9660_lookup
_cd9660_mmap
_cd9660_mount
_cd9660_mountroot
_cd9660_offtoblk
_cd9660_open
_cd9660_pagein
_cd9660_pathconf
_cd9660_read
_cd9660_readdir
_cd9660_readlink
_cd9660_reclaim
_cd9660_remove
_cd9660_rmdir
_cd9660_root
_cd9660_rrip_analyze
_cd9660_rrip_getname
_cd9660_rrip_getsymname
_cd9660_rrip_offset
_cd9660_select
_cd9660_specop_entries
_cd9660_specop_opv_desc
_cd9660_specop_p
_cd9660_start
_cd9660_statfs
_cd9660_strategy
_cd9660_sync
_cd9660_sysctl
_cd9660_tstamp_conv17
_cd9660_tstamp_conv7
_cd9660_unmount
_cd9660_vfs_getattr
_cd9660_vfsops
_cd9660_vget
_cd9660_vget_internal
_cd9660_vnodeop_entries
_cd9660_vnodeop_opv_desc
_cd9660_vnodeop_p
_cd9660_vptofh
_cd9660_xa_read
_cdevsw
_cdevsw_add
_cdevsw_add_with_bdev
_cdevsw_isfree
_cdevsw_remove
_cfree
_cfreecount
_cfreelist
_chandler
_chash_lck_attr
_chash_lck_grp
_chash_lck_grp_attr
_chdir
_checkBogus
_checkNMI
_check_actforsig
_check_mountedon
_check_routeselfref
_checkuseraccess
_chflags
_chgproccnt
_chkdq
_chkdqchg
_chkiq
_chkiqchg
_chkvnlock
_chmod
_chmod_extended
_chown
_chroot
_chrtoblk
_chrtoblk_set
_chud
_chudxnu_per_proc_alloc
_chudxnu_per_proc_free
_chudxnu_scom_read
_chudxnu_scom_write
_chudxnu_unbind_current_thread
_cinit
_cjk_encoding
_cjk_lastunique
_clalloc
_clear_procsiglist
_clear_wait
_clfree
_clock_absolutetime_interval_to_deadline
_clock_adjtime
_clock_alarm
_clock_alarm_reply
_clock_config
_clock_count
_clock_deadline_for_periodic_event
_clock_delay_until
_clock_get_attributes
_clock_get_boottime_nanotime
_clock_get_calendar_microtime
_clock_get_calendar_nanotime
_clock_get_calendar_value
_clock_get_system_microtime
_clock_get_system_nanotime
_clock_get_system_value
_clock_get_time
_clock_get_uptime
_clock_gettimeofday
_clock_gettimeofday_set_commpage
_clock_init
_clock_initialize_calendar
_clock_interval_to_absolutetime_interval
_clock_interval_to_deadline
_clock_list
_clock_oldconfig
_clock_oldinit
_clock_priv_server
_clock_priv_server_routine
_clock_priv_subsystem
_clock_server
_clock_server_routine
_clock_service_create
_clock_set_attributes
_clock_set_calendar_microtime
_clock_set_time
_clock_set_timer_func
_clock_sleep_trap
_clock_subsystem
_clock_timebase_info
_clock_timebase_init
_clock_wakeup_calendar
_clone_system_shared_regions
_cloneproc
_close
_close_internal
_closef
_closef_locked
_clr_be_bit
_clrbit
_clrbits
_cluster_bp
_cluster_copy_ubc_data
_cluster_copy_upl_data
_cluster_init
_cluster_pagein
_cluster_pageout
_cluster_push
_cluster_read
_cluster_transfer_minimum
_cluster_write
_cluster_zero
_clustered_reads
_clustered_writes
_clusters_available
_clusters_committed
_clusters_committed_peak
_cmask
_cngetc
_cnmaygetc
_cnodehash
_cnodehashtbl
_cnputc
_cnputcusr
_cntlzw
_collectth_state
_com_mapping_resource
_com_region_handle32
_com_region_handle64
_com_region_map32
_com_region_map64
_com_region_size32
_com_region_size64
_commPagePtr32
_commPagePtr64
_command_buffer
_commpage_flush_dcache
_commpage_flush_icache
_commpage_populate
_commpage_set_timestamp
_commpage_time_dcba
_comp_add_data
_comp_end
_comp_get_ratio
_comp_init
_compare_and_swap32_on32
_compare_and_swap32_on32b
_compare_and_swap32_on64
_compare_and_swap32_on64b
_compare_and_swap64
_compare_and_swap64b
_completepb
_compute_averages
_compute_averunnable
_compute_my_priority
_compute_priority
_compute_stack_target
_concat_domain
_connect
_cons
_cons_cinput
_cons_getc
_cons_ops
_cons_ops_index
_cons_putc
_consclose
_consdebug_putc
_consider_machine_adjust
_consider_machine_collect
_consider_mapping_adjust
_consider_zone_gc
_consioctl
_conslog_putc
_console_chan_default
_console_is_serial
_console_ops
_console_per_proc_alloc
_console_per_proc_free
_console_unit
_console_user
_consopen
_consread
_consselect
_constty
_conswrite
_convert_clock_ctrl_to_port
_convert_clock_to_port
_convert_host_to_port
_convert_ledger_to_port
_convert_lock_set_to_port
_convert_memory_object_to_port
_convert_mig_object_to_port
_convert_mo_control_to_port
_convert_port_entry_to_map
_convert_port_entry_to_object
_convert_port_to_UNDReply
_convert_port_to_clock
_convert_port_to_clock_ctrl
_convert_port_to_host
_convert_port_to_host_priv
_convert_port_to_host_security
_convert_port_to_ledger
_convert_port_to_lock_set
_convert_port_to_locked_task
_convert_port_to_map
_convert_port_to_memory_object
_convert_port_to_mig_object
_convert_port_to_mo_control
_convert_port_to_processor
_convert_port_to_pset
_convert_port_to_pset_name
_convert_port_to_semaphore
_convert_port_to_space
_convert_port_to_task
_convert_port_to_task_name
_convert_port_to_thread
_convert_port_to_upl
_convert_processor_to_port
_convert_pset_name_to_port
_convert_pset_to_port
_convert_semaphore_to_port
_convert_task_name_to_port
_convert_task_to_port
_convert_thread_to_port
_convert_upl_to_port
_copy_pkt
_copyfile
_copyin
_copyinmap
_copyinmsg
_copyinstr
_copyout
_copyoutmap
_copyoutmsg
_copyoutstr
_copypv
_copyright
_copystr
_copywithin
_coredump
_coredumpok
_corr
_count_busy_buffers
_count_lock_queue
_cpm_allocate
_cpu_bootstrap
_cpu_broadcast
_cpu_control
_cpu_doshutdown
_cpu_exit_wait
_cpu_info
_cpu_info_count
_cpu_init
_cpu_machine_init
_cpu_number
_cpu_per_proc_alloc
_cpu_per_proc_free
_cpu_per_proc_register
_cpu_signal
_cpu_signal_handler
_cpu_sleep
_cpu_start
_cpu_subtype
_cpu_sync_timebase
_cpu_threadtype
_cpu_timebase_signal_handler
_cpu_to_processor
_cpu_type
_cpus_holding_bkpts
_crc32
_create_panic_header
_csw_check
_cthread_stack_size
_ctl_deregister
_ctl_enqueuedata
_ctl_enqueuembuf
_ctl_getenqueuespace
_ctl_head
_ctl_register
_ctlname_to_sysctlevent
_cttyioctl
_cttyopen
_cttyread
_cttyselect
_cttywrite
_cur_tw_slot
_current_act
_current_debugger
_current_free_region
_current_map
_current_proc
_current_proc_EXTERNAL
_current_processor
_current_rootdir
_current_task
_current_thread
_current_thread_aborted
_current_workingdir
_cursor_pmap
_d_to_i
_dad6_mutex
_db_breakpoints_inserted
_db_dumpiojunk
_db_im_stepping
_db_piokjunk
_db_recover
_db_run_mode
_dbfloats
_dbgBits
_dbgCkpt
_dbgCkptLL
_dbgDisp
_dbgDispLL
_dbgRegsLL
_dbgTrace
_dbspecrs
_dbugprintf
_dbvecs
_dcache_incoherent_io_flush64
_dcache_incoherent_io_store64
_ddb_regs
_ddp_AURPsendx
_ddp_add_if
_ddp_adjmsg
_ddp_age_router
_ddp_bit_reverse
_ddp_brt_init
_ddp_brt_shutdown
_ddp_brt_sweep
_ddp_brt_sweep_locked
_ddp_brt_sweep_timer
_ddp_checksum
_ddp_compress_msg
_ddp_ctloutput
_ddp_glean
_ddp_growmsg
_ddp_handler
_ddp_head
_ddp_init
_ddp_input
_ddp_notify_nbp
_ddp_output
_ddp_pru_abort
_ddp_pru_attach
_ddp_pru_bind
_ddp_pru_connect
_ddp_pru_control
_ddp_pru_detach
_ddp_pru_disconnect
_ddp_pru_peeraddr
_ddp_pru_send
_ddp_pru_shutdown
_ddp_pru_sockaddr
_ddp_putmsg
_ddp_recvspace
_ddp_rem_if
_ddp_router_output
_ddp_sendspace
_ddp_shutdown
_ddp_slowtimo
_ddp_socket_inuse
_ddp_start
_ddp_usrreqs
_dead_badop
_dead_blktooff
_dead_blockmap
_dead_ebadf
_dead_ioctl
_dead_lookup
_dead_mountp
_dead_nullop
_dead_offtoblk
_dead_open
_dead_read
_dead_select
_dead_strategy
_dead_vnodeop_entries
_dead_vnodeop_opv_desc
_dead_vnodeop_p
_dead_write
_debcnputc
_debsave0
_debstack
_debugNoop
_debug_buf
_debug_buf_page
_debug_buf_ptr
_debug_buf_size
_debug_container_malloc_size
_debug_iomalloc_size
_debug_iomallocpageable_size
_debug_ivars_size
_debug_log_init
_debug_malloc_size
_debug_mode
_debug_putc
_debugbackpocket
_debugger_cpu
_debugger_debug
_debugger_lock
_debugger_sync
_def_tbuffer_size
_default_environment_shared_regions
_default_pager
_default_pager_add_file
_default_pager_async_lock
_default_pager_backing_store_create
_default_pager_backing_store_delete
_default_pager_backing_store_info
_default_pager_backing_store_monitor
_default_pager_backing_store_monitor_callout
_default_pager_clsize
_default_pager_default_set
_default_pager_external_count
_default_pager_external_set
_default_pager_info
_default_pager_info_64
_default_pager_info_verbose
_default_pager_init_flag
_default_pager_initialize
_default_pager_internal_count
_default_pager_internal_set
_default_pager_memory_object_create
_default_pager_memory_object_default_subsystem
_default_pager_object
_default_pager_object_create
_default_pager_object_pages
_default_pager_object_server
_default_pager_object_server_routine
_default_pager_object_subsystem
_default_pager_objects
_default_pager_ops
_default_pager_space_alert
_default_pager_triggers
_default_preemption_rate
_default_pset
_deflate
_deflateCopy
_deflateEnd
_deflateInit2_
_deflateInit_
_deflateParams
_deflateReset
_deflateSetDictionary
_deflate_copyright
_defrouter_addreq
_defrouter_delreq
_defrouter_lookup
_defrouter_select
_defrtrlist_del
_delack_bitmask
_delay
_delay_for_interval
_delete
_delete_each_prefix
_des_SPtrans
_des_check_key
_des_check_key_parity
_des_decrypt3
_des_ecb3_encrypt
_des_ecb_encrypt
_des_encrypt1
_des_encrypt2
_des_encrypt3
_des_fixup_key_parity
_des_is_weak_key
_des_key_sched
_des_options
_des_set_key
_des_set_key_checked
_des_set_key_unchecked
_des_set_odd_parity
_desiredNegNodes
_desiredNodes
_desireddquot
_desiredvnodes
_dest6_input
_dev_add_entry
_dev_add_name
_dev_add_node
_dev_dup_plane
_dev_findname
_dev_free_name
_dev_root
_devcls
_devfs_dntovn
_devfs_free_plane
_devfs_kernel_mount
_devfs_lck_attr
_devfs_lck_grp
_devfs_lck_grp_attr
_devfs_make_link
_devfs_make_node
_devfs_mount
_devfs_mutex
_devfs_remove
_devfs_sinit
_devfs_spec_vnodeop_opv_desc
_devfs_spec_vnodeop_p
_devfs_stats
_devfs_vfsops
_devfs_vnodeop_opv_desc
_devfs_vnodeop_p
_device_close
_device_data_action
_device_object_create
_device_pager_bootstrap
_device_pager_data_initialize
_device_pager_data_request
_device_pager_data_return
_device_pager_data_unlock
_device_pager_deallocate
_device_pager_init
_device_pager_lookup
_device_pager_ops
_device_pager_populate_object
_device_pager_reference
_device_pager_setup
_device_pager_synchronize
_device_pager_terminate
_device_pager_unmap
_device_pager_zone
_device_service_create
_devin
_devio
_devioc
_devnode_free
_devopn
_devout
_devwait
_dgVideo
_dgWork
_dgraph_add_dependency
_dgraph_add_dependent
_dgraph_establish_load_order
_dgraph_find_dependent
_dgraph_find_root
_dgraph_free
_dgraph_init
_dgraph_log
_dhcpol_add
_dhcpol_concat
_dhcpol_count
_dhcpol_element
_dhcpol_find
_dhcpol_free
_dhcpol_get
_dhcpol_init
_dhcpol_parse_buffer
_dhcpol_parse_packet
_dhcpol_parse_vendor
_di_root_image
_diagCall
_diagTrap
_dirchk
_disableConsoleOutput
_disableDebugOuput
_disableSerialOuput
_disable_bluebox
_disable_bluebox_internal
_disable_branch_tracing
_dispatch_counts
_div_init
_div_input
_div_usrreqs
_divert_packet
_dlil_attach_filter
_dlil_attach_protocol
_dlil_dereg_if_modules
_dlil_dereg_proto_module
_dlil_detach_filter
_dlil_detach_protocol
_dlil_event
_dlil_expand_mcl
_dlil_if_acquire
_dlil_if_attach
_dlil_if_detach
_dlil_if_release
_dlil_init
_dlil_initialized
_dlil_input
_dlil_input_lock
_dlil_input_packet
_dlil_input_thread_wakeup
_dlil_input_with_stats
_dlil_ioctl
_dlil_output
_dlil_output_list
_dlil_plumb_protocol
_dlil_reg_if_modules
_dlil_reg_proto_module
_dlil_unplumb_protocol
_dmmax
_dmmin
_dmtext
_dn_mutex
_dn_mutex_attr
_dn_mutex_grp
_dn_mutex_grp_attr
_do_bsdexception
_do_reclaim
_doasyncfree
_doclusterread
_doclusterwrite
_doexception
_domain_proto_mtx
_domain_proto_mtx_attr
_domain_proto_mtx_grp
_domaininit
_domainname
_domainnamelen
_domains
_donice
_doreallocblks
_dosetrlimit
_dounmount
_dp_encryption
_dp_encryption_inited
_dp_memory_object_data_initialize
_dp_memory_object_data_request
_dp_memory_object_data_return
_dp_memory_object_data_unlock
_dp_memory_object_deallocate
_dp_memory_object_init
_dp_memory_object_reference
_dp_memory_object_subsystem
_dp_memory_object_synchronize
_dp_memory_object_terminate
_dp_memory_object_unmap
_dp_pages_free
_dp_parse_argument
_dp_pgins
_dp_pgouts
_dpt_array
_dpt_lock
_dqdirtylist
_dqfileclose
_dqfileinit
_dqfileopen
_dqflush
_dqfreelist
_dqget
_dqhash
_dqhashtbl
_dqinit
_dqlock
_dqreclaim
_dqrele
_dqsync
_dqsync_orphans
_dqunlock
_draw_panic_dialog
_dsmos_page_transform
_dsmos_page_transform_hook
_dummynet_debug
_dummynet_drain
_dump_backtrace
_dump_savearea
_dumpdev
_dumplo
_dup
_dup2
_dup_sockaddr
_dupfdopen
_dylink_test
_dynamic_pager_control_port
_edata
_elap_dataput
_elap_offline
_elap_online3
_elap_wput
_embutl
_enable_bluebox
_enable_branch_tracing
_enable_hotpath
_enablequotas
_encap4_input
_encap6_input
_encap_attach
_encap_attach_func
_encap_detach
_encap_getarg
_encap_init
_encaptab
_encode_comp_t
_encodinglst_lck_attr
_encodinglst_lck_grp
_encodinglst_lck_grp_attr
_encodinglst_mutex
_end
_enodev
_enodev_strat
_enoioctl
_enosys
_enter_funnel_section
_enterpgrp
_entfsectPatch_isync
_env_buf
_enxio
_eopnotsupp
_ep_input
_err_access
_err_advlock
_err_allocate
_err_blktooff
_err_blockmap
_err_bwrite
_err_close
_err_copyfile
_err_create
_err_exchange
_err_fsync
_err_getattr
_err_getattrlist
_err_inactive
_err_ioctl
_err_link
_err_mkdir
_err_mknod
_err_mmap
_err_offtoblk
_err_open
_err_pagein
_err_pageout
_err_pathconf
_err_read
_err_readdir
_err_readdirattr
_err_readlink
_err_reclaim
_err_remove
_err_rename
_err_revoke
_err_rmdir
_err_searchfs
_err_select
_err_setattr
_err_setattrlist
_err_strategy
_err_symlink
_err_whiteout
_err_write
_errstr
_errsys
_esp4_input
_esp4_output
_esp6_ctlinput
_esp6_input
_esp6_output
_esp_aes_schedlen
_esp_aes_schedule
_esp_algorithm_lookup
_esp_auth
_esp_cbc_decrypt_aes
_esp_cbc_encrypt_aes
_esp_hdrsiz
_esp_max_ivlen
_esp_schedule
_esp_udp_encap_port
_et_zeroaddr
_etalk_multicast_addr
_etext
_ether_add_proto
_ether_attach_at
_ether_attach_inet
_ether_attach_inet6
_ether_check_multi
_ether_del_proto
_ether_demux
_ether_detach_at
_ether_detach_inet
_ether_detach_inet6
_ether_family_init
_ether_frameout
_ether_ioctl
_ether_pre_output
_ether_prmod_ioctl
_etimer_intr
_etimer_resync_deadlines
_etimer_set_deadline
_ev_try_lock
_ev_unlock
_evclass_hash
_event_usrreqs
_eventsw
_evpipefree
_evsofree
_evt_mutex
_exc_server
_exc_server_routine
_exception_deliver
_exception_end
_exception_entry
_exception_exit
_exception_raise
_exception_raise_state
_exception_raise_state_identity
_exception_triage
_exchangedata
_exec_archhandler_ppc
_execsigs
_execsw
_execve
_execve_semaphore
_exit
_exit1
_exit_funnel_section
_extPatch32
_extPatchMCK
_failNames
_falloc
_falloc_locked
_fastexit
_fatfile_getarch
_fatfile_getarch_affinity
_fatfile_getarch_with_bits
_fchdir
_fchflags
_fchmod
_fchmod_extended
_fchown
_fcntl
_fctx_test
_fdalloc
_fdavail
_fdcopy
_fddrop
_fdesc_allocvp
_fdesc_badop
_fdesc_getattr
_fdesc_inactive
_fdesc_init
_fdesc_ioctl
_fdesc_lookup
_fdesc_mount
_fdesc_open
_fdesc_pathconf
_fdesc_read
_fdesc_readdir
_fdesc_readlink
_fdesc_reclaim
_fdesc_root
_fdesc_select
_fdesc_setattr
_fdesc_start
_fdesc_statfs
_fdesc_sync
_fdesc_unmount
_fdesc_vfree
_fdesc_vfsops
_fdesc_vnodeop_entries
_fdesc_vnodeop_opv_desc
_fdesc_vnodeop_p
_fdesc_write
_fdexec
_fdexpand
_fdfree
_fdgetf_noref
_fdhash
_fdhashtbl
_fdopen
_fdrelse
_ffs
_ffs_alloc
_ffs_balloc
_ffs_blkalloc
_ffs_blkfree
_ffs_blkpref
_ffs_blktooff
_ffs_clrblock
_ffs_fhtovp
_ffs_fifoop_entries
_ffs_fifoop_opv_desc
_ffs_fifoop_p
_ffs_flushfiles
_ffs_fragacct
_ffs_fsync
_ffs_fsync_internal
_ffs_init
_ffs_isblock
_ffs_mount
_ffs_mountfs
_ffs_mountroot
_ffs_offtoblk
_ffs_oldfscompat
_ffs_pagein
_ffs_pageout
_ffs_read
_ffs_read_internal
_ffs_realloccg
_ffs_reclaim
_ffs_reload
_ffs_sbupdate
_ffs_setblock
_ffs_specop_entries
_ffs_specop_opv_desc
_ffs_specop_p
_ffs_statfs
_ffs_sync
_ffs_sysctl
_ffs_truncate_internal
_ffs_unmount
_ffs_update
_ffs_valloc
_ffs_vfree
_ffs_vfs_getattr
_ffs_vfs_setattr
_ffs_vget
_ffs_vget_internal
_ffs_vnodeop_entries
_ffs_vnodeop_opv_desc
_ffs_vnodeop_p
_ffs_vptofh
_ffs_write
_ffs_write_internal
_ffsbit
_fg_drop
_fg_free
_fg_insertuipc
_fg_ref
_fg_removeuipc
_fgetxattr
_fhopen
_fifo_advlock
_fifo_close
_fifo_close_internal
_fifo_ebadf
_fifo_inactive
_fifo_ioctl
_fifo_lookup
_fifo_nfsv2nodeop_opv_desc
_fifo_nfsv2nodeop_p
_fifo_open
_fifo_pathconf
_fifo_printinfo
_fifo_read
_fifo_select
_fifo_vnodeop_entries
_fifo_vnodeop_opv_desc
_fifo_vnodeop_p
_fifo_write
_file_drop
_file_flags
_file_flist_lock
_file_iterate_lcok
_file_lck_attr
_file_lck_grp
_file_lck_grp_attr
_file_lock_init
_file_socket
_file_vnode
_filedesc0
_filehead
_fileproc_drain
_fillPage
_fill_backward_load_order
_fill_fileinfo
_fill_kqueueinfo
_fill_pipeinfo
_fill_procregioninfo
_fill_pseminfo
_fill_pshminfo
_fill_socketinfo
_fill_taskprocinfo
_fill_taskthreadinfo
_fill_taskthreadlist
_fill_vnodeinfo
_find_entry
_find_ifID
_find_kern_regs
_find_user_fpu
_find_user_regs
_find_user_vec
_find_user_vec_curr
_finishdup
_fips_initialize
_first_avail
_first_free_virt
_first_k_zone
_first_zone
_firstc
_firstsect
_firstseg
_firstsegfromheader
_fixjobc
_flags_and_error_to_openevent
_flistxattr
_flock
_flush_cache_on_write
_flush_dcache
_flush_dcache64
_flush_pipe_ptrs
_fmsg_ithead
_fmsghead
_fo_close
_fo_ioctl
_fo_kqfilter
_fo_read
_fo_select
_fo_write
_forUs
_forcenap
_fork
_forkproc
_fp_clearflags
_fp_drop
_fp_drop_event
_fp_drop_written
_fp_free
_fp_getfatalk
_fp_getfkq
_fp_getfpipe
_fp_getfpsem
_fp_getfpshm
_fp_getfsock
_fp_getfvp
_fp_getfvpandvid
_fp_lookup
_fp_setflags
_fpathconf
_fpu_save
_fpu_switch
_fr_checkp
_frag6_doing_reass
_frag6_drain
_frag6_init
_frag6_input
_frag6_nfragpackets
_frag6_slowtimo
_fragtbl
_fragtbl124
_fragtbl8
_free_io_buf
_free_mappings
_free_pmap_count
_free_pmap_list
_free_pmap_lock
_free_pmap_max
_freebitcount
_freevnodes
_fremovexattr
_fs_filtops
_fsconf_lck_attr
_fsconf_lck_grp
_fsconf_lck_grp_attr
_fsctl
_fsetxattr
_fsevent_unmount
_fsevents_init
_fseventsf_kqfilter
_fstat
_fstat_extended
_fstatfs
_fstatv
_fsync
_ftruncate
_fubyte
_fuibyte
_fuiword
_fulong
_funnel_alloc
_funnel_free
_funnel_lck_attr
_funnel_lck_grp
_funnel_lck_grp_attr
_funnel_lock
_funnel_unlock
_futimes
_fuulong
_fuword
_fvm_seg
_fwEmMck
_fwSCCinit
_fwSCOM
_fw_enable
_fw_one_pass
_fw_verbose
_gCompareTable
_gGearPict
_gGetDefaultBusSpeedsKey
_gIOAppPowerStateInterest
_gIOBusyInterest
_gIOCatalogCacheMisses
_gIOCatalogLock
_gIOCatalogModuleRequests
_gIOCatalogROMMkexts
_gIOCatalogue
_gIOClassKey
_gIOCommandPoolSizeKey
_gIOConsoleSessionOnConsoleKey
_gIOConsoleSessionSecureInputPIDKey
_gIOConsoleSessionUIDKey
_gIOConsoleUsersKey
_gIOConsoleUsersSeedKey
_gIOCopyMapper
_gIODTAAPLInterruptsKey
_gIODTAddressCellKey
_gIODTCompatibleKey
_gIODTDefaultInterruptController
_gIODTInterruptCellKey
_gIODTInterruptParentKey
_gIODTModelKey
_gIODTNWInterruptMappingKey
_gIODTNameKey
_gIODTPHandleKey
_gIODTPersistKey
_gIODTPlane
_gIODTRangeKey
_gIODTSharedInterrupts
_gIODTSizeCellKey
_gIODTTypeKey
_gIODTUnitKey
_gIODefaultMatchCategoryKey
_gIODeviceMemoryKey
_gIOFirstMatchNotification
_gIOFirstPublishNotification
_gIOGeneralInterest
_gIOHibernateCryptWakeVars
_gIOHibernateCurrentHeader
_gIOHibernateFreeTime
_gIOHibernateGraphicsInfo
_gIOHibernateMode
_gIOHibernateRestoreStack
_gIOHibernateRestoreStackEnd
_gIOHibernateState
_gIOHibernateWakeMap
_gIOHibernateWakeMapSize
_gIOHighestAllocatedPage
_gIOInterruptControllersKey
_gIOInterruptSpecifiersKey
_gIOKLDLock
_gIOKernelConfigTables
_gIOKernelKmods
_gIOKitDebug
_gIOKitDebugKey
_gIOKitPortCount
_gIOLastPage
_gIOLocationKey
_gIOLocationMatchKey
_gIOMatchCategoryKey
_gIOMatchedNotification
_gIOMatchedServiceCountKey
_gIOModuleIdentifierKey
_gIONameKey
_gIONameMatchKey
_gIONameMatchedKey
_gIOParentMatchKey
_gIOPathMatchKey
_gIOPowerPlane
_gIOPrelinkedModules
_gIOPriorityPowerStateInterest
_gIOProbeScoreKey
_gIOPropertyMatchKey
_gIOProviderClassKey
_gIOPublishNotification
_gIORangeAllocatorLock
_gIORegistryLock
_gIORegistryLockAttr
_gIORegistryLockGrp
_gIORegistryLockGrpAttr
_gIOResourceMatchKey
_gIOResourcesKey
_gIOServiceKey
_gIOServicePlane
_gIOTerminatedNotification
_gIOUserClientClassKey
_gLastBlockChecksum
_gLatinCaseFold
_gLowerCaseTable
_gOFVariables
_gPEClockFrequencyInfo
_gPESerialBaud
_gPlatformInterruptControllerName
_gTimeZone
_g_SelfTestInitialized
_g_bytes_used
_g_random_data
_g_sha1_ctx
_g_xkey
_gatherstats
_gbuf_alloc_wait
_gbuf_freel
_gbuf_linkb
_gbuf_linkpkt
_gbuf_msgsize
_gbuf_strip
_gc_buffer_lock
_gc_vt100state
_gen_tabs
_getAarp
_getAarpTableSize
_getIfUsage
_getLocalZone
_getNbpTable
_getNbpTableSize
_getPhysAddrSize
_getProcName
_getProtPPC
_getRTRLocalZone
_getRtmpTable
_getRtmpTableSize
_getSPLocalZone
_getZipTable
_getZipTableSize
_get_aiotask
_get_bsdtask_info
_get_bsdthread_info
_get_bsduthreadarg
_get_bsduthreadrval
_get_dp_control_port
_get_firstthread
_get_fse_info
_get_got
_get_inpcb_str_size
_get_io_base_addr
_get_kernel_symfile
_get_map_max
_get_map_min
_get_map_nentries
_get_map_pmap
_get_msr_exportmask
_get_msr_nbits
_get_msr_rbits
_get_numthreads
_get_pathbuff
_get_preemption_level
_get_procrustime
_get_read_buffer
_get_signalact
_get_task_ipcspace
_get_task_map
_get_task_map_reference
_get_task_numacts
_get_task_pmap
_get_task_userstop
_get_tcp_str_size
_get_thread_userstop
_get_threadtask
_get_user_regs
_get_useraddr
_get_vm_end
_get_vm_start
_get_vmmap_entries
_get_vmmap_size
_get_vmsubmap_entries
_getact_thread
_getattrlist
_getaudit
_getaudit_addr
_getauid
_getc
_getchar
_getdirentries
_getdirentriesattr
_getdtablesize
_getegid
_geteuid
_getfakefvmseg
_getfh
_getfsstat
_getgid
_getgroups
_getinoquota
_getitimer
_getlastaddr
_getlogin
_getmachheaders
_getpeername
_getpgid
_getpgrp
_getpid
_getppid
_getpriority
_getquota
_getrlimit
_getrpc
_getrusage
_gets
_getsectbyname
_getsectbynamefromheader
_getsectcmdsymtabfromheader
_getsectdatafromheader
_getsegbyname
_getsegbynamefromheader
_getsegdatafromheader
_getsgroups
_getshuttle_thread
_getsid
_getsockaddr
_getsockname
_getsockopt
_getsymtab
_gettid
_gettimeofday
_gettimeofday_32
_gettimeofday_g5_32
_gettimeofday_g5_64
_getuid
_getval
_getwgroups
_getxattr
_gif_attach_proto_family
_gif_demux
_gif_encapcheck4
_gif_encapcheck6
_gif_input
_gif_ioctl
_gif_pre_output
_gifattach
_gifs
_global_state_pid
_global_stats
_global_user_profile_cache
_grade_binary
_gref_alloc
_gref_close
_gref_wput
_groupmember
_gsignal
_halt_all_cpus
_halt_cpu
_halt_in_debugger
_handleDSeg
_handleISeg
_handlePF
_hard_throttle_on_root
_hashLookupTable
_hash_table_base
_hash_table_shift
_hash_table_size
_hashinit
_hertz_tick
_hex2ascii_data
_hfc_tag
_hfs_addconverter
_hfs_attrname
_hfs_bmap
_hfs_catname
_hfs_chash_mutex
_hfs_chkdq
_hfs_chkdqchg
_hfs_chkiq
_hfs_chkiqchg
_hfs_converterinit
_hfs_create_attr_btree
_hfs_encoding_list
_hfs_encodingbias
_hfs_extname
_hfs_fifoop_entries
_hfs_fifoop_opv_desc
_hfs_fifoop_p
_hfs_generate_volume_notifications
_hfs_getconverter
_hfs_getinoquota
_hfs_getquota
_hfs_group_attr
_hfs_islatinbias
_hfs_lock_attr
_hfs_mutex_group
_hfs_owner_rights
_hfs_pickencoding
_hfs_privdirname
_hfs_qsync
_hfs_quotaoff
_hfs_quotaon
_hfs_quotastat
_hfs_relconverter
_hfs_remconverter
_hfs_rwlock_group
_hfs_setquota
_hfs_setuse
_hfs_specop_entries
_hfs_specop_opv_desc
_hfs_specop_p
_hfs_swap_BTNode
_hfs_to_utf8
_hfs_vbmname
_hfs_vfsops
_hfs_vnodeop_entries
_hfs_vnodeop_opv_desc
_hfs_vnodeop_p
_hfs_vnop_allocate
_hfs_vnop_blktooff
_hfs_vnop_blockmap
_hfs_vnop_bwrite
_hfs_vnop_ioctl
_hfs_vnop_offtoblk
_hfs_vnop_pagein
_hfs_vnop_pageout
_hfs_vnop_read
_hfs_vnop_select
_hfs_vnop_strategy
_hfs_vnop_write
_hfsfifo_kqfilt_add
_hfsfifo_kqfilt_remove
_hibernate_kernel_entrypoint
_hibernate_machine_entrypoint
_hibernate_machine_init
_hibernate_newruntime_map
_hibernate_page_bitmap_count
_hibernate_page_bitmap_pin
_hibernate_page_bitset
_hibernate_page_bittst
_hibernate_page_list_allocate
_hibernate_page_list_discard
_hibernate_page_list_set_volatile
_hibernate_page_list_setall
_hibernate_page_list_setall_machine
_hibernate_processor_setup
_hibernate_restore_phys_page
_hibernate_set_page_state
_hibernate_setup
_hibernate_sum
_hibernate_teardown
_hibernate_vm_lock
_hibernate_vm_unlock
_hibernate_write_image
_hid0get64
_hid1get
_hid5set64
_host_default_memory_manager
_host_get_UNDServer
_host_get_boot_info
_host_get_clock_control
_host_get_clock_service
_host_get_exception_ports
_host_get_io_master
_host_get_special_port
_host_info
_host_ipc_hash_info
_host_kernel_version
_host_load_symbol_table
_host_lockgroup_info
_host_notify_calendar_change
_host_notify_init
_host_notify_port_destroy
_host_page_size
_host_priv_self
_host_priv_server
_host_priv_server_routine
_host_priv_statistics
_host_priv_subsystem
_host_processor_info
_host_processor_set_priv
_host_processor_sets
_host_processors
_host_reboot
_host_request_notification
_host_security_create_task_token
_host_security_self
_host_security_server
_host_security_server_routine
_host_security_set_task_token
_host_security_subsystem
_host_self
_host_self_trap
_host_set_UNDServer
_host_set_exception_ports
_host_set_special_port
_host_statistics
_host_swap_exception_ports
_host_virtual_physical_table_info
_host_zone_info
_hostid
_hostname
_hostnamelen
_hw_add_map
_hw_add_map_gv
_hw_atomic_add
_hw_atomic_and
_hw_atomic_or
_hw_atomic_sub
_hw_blow_seg
_hw_clear_maps
_hw_compare_and_store
_hw_copypv_32
_hw_cpu_sync
_hw_cpu_wcng
_hw_dequeue_atomic
_hw_find_map
_hw_find_map_gv
_hw_find_space
_hw_gva_to_hva
_hw_hash_init
_hw_lock_bit
_hw_lock_held
_hw_lock_init
_hw_lock_lock
_hw_lock_mbits
_hw_lock_to
_hw_lock_try
_hw_lock_unlock
_hw_map_seg
_hw_perfmon_lock
_hw_protect
_hw_protect_gv
_hw_purge_map
_hw_purge_phys
_hw_purge_space
_hw_queue_atomic
_hw_queue_atomic_list
_hw_rem_all_gv
_hw_rem_local_gv
_hw_rem_map
_hw_res_map_gv
_hw_scrub_guest
_hw_set_user_space
_hw_set_user_space_dis
_hw_setup_trans
_hw_start_trans
_hw_susp_map_gv
_hw_test_rc
_hw_test_rc_gv
_hw_unlock_bit
_hw_walk_phys
_hwcsatomicPatch_isync
_hwllckPatch_isync
_hwlmlckPatch_isync
_hwltlckPatch_isync
_hwulckPatch_eieio
_hwulckPatch_isync
_hwulckbPatch_eieio
_hwulckbPatch_isync
_hz
_hzto
_iNullLL
_icmp6_ctloutput
_icmp6_error
_icmp6_fasttimo
_icmp6_ifstat
_icmp6_ifstatmax
_icmp6_init
_icmp6_input
_icmp6_mtudisc_update
_icmp6_nodeinfo
_icmp6_rediraccept
_icmp6_redirect_input
_icmp6_redirect_output
_icmp6_redirtimeout
_icmp6_reflect
_icmp6errppslim
_icmp6stat
_icmp_error
_icmp_input
_identitysvc
_idle_thread
_idle_thread_create
_ifID_home
_ifID_table
_if_addmulti
_if_allmulti
_if_clone_attach
_if_clone_detach
_if_cloners
_if_delmulti
_if_delmultiaddr
_if_down
_if_down_all
_if_index
_if_name
_if_rtproto_del
_if_tx_rdy
_if_up
_if_withname
_ifa_ifwithaddr
_ifa_ifwithdstaddr
_ifa_ifwithnet
_ifa_ifwithroute
_ifaddr_address
_ifaddr_address_family
_ifaddr_dstaddress
_ifaddr_findbestforaddr
_ifaddr_ifnet
_ifaddr_netmask
_ifaddr_reference
_ifaddr_release
_ifaddr_withaddr
_ifaddr_withdstaddr
_ifaddr_withnet
_ifaddr_withroute
_ifafree
_ifaof_ifpforaddr
_ifaref
_ifbyfamily
_ifindex2ifnet
_ifioctl
_ifioctllocked
_iflt_attach
_iflt_detach
_ifma_reference
_ifma_release
_ifmaddr_address
_ifmaddr_ifnet
_ifmaddr_lladdress
_ifmaddr_reference
_ifmaddr_release
_ifmaof_ifpforaddr
_ifnet
_ifnet_add_multicast
_ifnet_addrlen
_ifnet_addrs
_ifnet_allocate
_ifnet_attach
_ifnet_attach_protocol
_ifnet_baudrate
_ifnet_detach
_ifnet_detach_protocol
_ifnet_eflags
_ifnet_event
_ifnet_family
_ifnet_find_by_name
_ifnet_flags
_ifnet_free_address_list
_ifnet_free_multicast_list
_ifnet_get_address_list
_ifnet_get_address_list_family
_ifnet_get_link_mib_data
_ifnet_get_link_mib_data_length
_ifnet_get_multicast_list
_ifnet_hdrlen
_ifnet_index
_ifnet_input
_ifnet_ioctl
_ifnet_lastchange
_ifnet_list_free
_ifnet_list_get
_ifnet_lladdr
_ifnet_lladdr_copy_bytes
_ifnet_llbroadcast_copy_bytes
_ifnet_metric
_ifnet_mtu
_ifnet_name
_ifnet_offload
_ifnet_output
_ifnet_output_raw
_ifnet_reference
_ifnet_release
_ifnet_remove_multicast
_ifnet_set_addrlen
_ifnet_set_baudrate
_ifnet_set_eflags
_ifnet_set_flags
_ifnet_set_hdrlen
_ifnet_set_link_mib_data
_ifnet_set_lladdr
_ifnet_set_lladdr_and_type
_ifnet_set_metric
_ifnet_set_mtu
_ifnet_set_offload
_ifnet_set_promiscuous
_ifnet_set_stat
_ifnet_softc
_ifnet_stat
_ifnet_stat_increment
_ifnet_stat_increment_in
_ifnet_stat_increment_out
_ifnet_touch_lastchange
_ifnet_type
_ifnet_unit
_ifp_reference
_ifp_release
_ifqmaxlen
_iftovt_tab
_ifunit
_igmp_fasttimo
_igmp_init
_igmp_input
_igmp_joingroup
_igmp_leavegroup
_igmp_slowtimo
_ignore_zero_fault
_ihandler
_ihandler_ret
_ihash
_ihashtbl
_in6_addmulti
_in6_addr2scopeid
_in6_addrscope
_in6_are_prefix_equal
_in6_cksum
_in6_clearscope
_in6_control
_in6_delmulti
_in6_dinit
_in6_embedscope
_in6_get_tmpifid
_in6_gif_input
_in6_gif_output
_in6_gif_protosw
_in6_if_up
_in6_ifaddrs
_in6_ifattach
_in6_ifawithifp
_in6_ifawithscope
_in6_ifdetach
_in6_ifindex2scopeid
_in6_ifstat
_in6_ifstatmax
_in6_init2done
_in6_init_prefix_ltimes
_in6_inithead
_in6_is_addr_deprecated
_in6_len2mask
_in6_localaddr
_in6_losing
_in6_mapped_peeraddr
_in6_mapped_sockaddr
_in6_mask2len
_in6_matchlen
_in6_maxmtu
_in6_multihead
_in6_nigroup
_in6_nigroup_attach
_in6_nigroup_detach
_in6_pcbbind
_in6_pcbconnect
_in6_pcbdetach
_in6_pcbdisconnect
_in6_pcbladdr
_in6_pcblookup_hash
_in6_pcblookup_local
_in6_pcbnotify
_in6_pcbsetport
_in6_post_msg
_in6_prefix_add_ifid
_in6_prefix_ioctl
_in6_prefix_remove_ifid
_in6_prefixlen2mask
_in6_proto_count
_in6_purgeaddr
_in6_purgeif
_in6_purgeprefix
_in6_recoverscope
_in6_rr_timer
_in6_rtchange
_in6_selecthlim
_in6_selectsrc
_in6_setmaxmtu
_in6_setpeeraddr
_in6_setsockaddr
_in6_sin6_2_sin
_in6_sin6_2_sin_in_sock
_in6_sin_2_v4mapsin6
_in6_sin_2_v4mapsin6_in_sock
_in6_sockaddr
_in6_tmpaddrtimer
_in6_tmpifadd
_in6_update_ifa
_in6_v4mapsin6_sockaddr
_in6addr_any
_in6addr_linklocal_allnodes
_in6addr_linklocal_allrouters
_in6addr_loopback
_in6addr_nodelocal_allnodes
_in6if_do_dad
_in6ifa_ifpforlinklocal
_in6ifa_ifpwithaddr
_in6mask0
_in6mask128
_in6mask32
_in6mask64
_in6mask96
_in_addmulti
_in_addword
_in_broadcast
_in_canforward
_in_cksum
_in_cksum_offset
_in_cksum_skip
_in_control
_in_delayed_cksum
_in_delayed_cksum_offset
_in_delmulti
_in_dinit
_in_gif_input
_in_gif_output
_in_gif_protosw
_in_ifaddrhead
_in_ifadown
_in_ifscrub
_in_inithead
_in_localaddr
_in_losing
_in_multihead
_in_pcb_checkstate
_in_pcb_get_owner
_in_pcb_grab_port
_in_pcb_letgo_port
_in_pcb_nat_init
_in_pcb_new_share_client
_in_pcb_rem_share_client
_in_pcballoc
_in_pcbbind
_in_pcbconnect
_in_pcbdetach
_in_pcbdisconnect
_in_pcbdispose
_in_pcbinshash
_in_pcbladdr
_in_pcblookup_hash
_in_pcblookup_local
_in_pcbnotifyall
_in_pcbpurgeif0
_in_pcbrehash
_in_pcbremlists
_in_proto_count
_in_pseudo
_in_rtchange
_in_rtqdrain
_in_setpeeraddr
_in_setsockaddr
_in_stf_protosw
_inactivevnodes
_incrVSID
_inet6_domain_mutex
_inet6ctlerrmap
_inet6domain
_inet6sw
_inet_aton
_inet_domain_mutex
_inet_ntop
_inetctlerrmap
_inetdomain
_inetsw
_inferior
_inflate
_inflateEnd
_inflateInit2_
_inflateInit_
_inflateReset
_inflateSetDictionary
_inflateSync
_inflateSyncPoint
_inflate_blocks
_inflate_blocks_free
_inflate_blocks_new
_inflate_blocks_reset
_inflate_blocks_sync_point
_inflate_codes
_inflate_codes_free
_inflate_codes_new
_inflate_copyright
_inflate_fast
_inflate_flush
_inflate_mask
_inflate_set_dictionary
_inflate_trees_bits
_inflate_trees_dynamic
_inflate_trees_fixed
_init_args
_init_ast_check
_init_attempts
_init_ddp_handler
_init_domain
_init_exec_args
_init_ip6pktopts
_init_process
_init_sin6
_init_task_failure_data
_initgroups
_initialize_screen
_initialize_serial
_initproc
_inittodr
_inpcb_to_compat
_inside
_install_special_handler
_install_special_handler_locked
_int6intrq_present
_interrupt
_intstack
_inval_copy_windows
_invalhash
_invalidateSegs
_invalidate_dcache
_invalidate_dcache64
_invalidate_icache
_invalidate_icache64
_invxcption
_io_map
_io_map_spec
_io_throttle_zero_fill
_ioc_ack
_ioctl
_iokit_add_reference
_iokit_alloc_object_port
_iokit_client_died
_iokit_destroy_object_port
_iokit_lookup_connect_port
_iokit_lookup_connect_ref
_iokit_lookup_connect_ref_current_task
_iokit_lookup_object_port
_iokit_make_connect_port
_iokit_make_object_port
_iokit_make_send_right
_iokit_mod_send_right
_iokit_notify
_iokit_port_for_object
_iokit_release_port
_iokit_remove_reference
_iokit_retain_port
_iokit_server
_iokit_server_routine
_iokit_switch_object_port
_iokit_user_client_trap
_ip4_ah_cleartos
_ip4_ah_net_deflev
_ip4_ah_offsetmask
_ip4_ah_trans_deflev
_ip4_def_policy
_ip4_esp_net_deflev
_ip4_esp_randpad
_ip4_esp_trans_deflev
_ip4_ipsec_dfbit
_ip4_ipsec_ecn
_ip6_accept_rtadv
_ip6_addaux
_ip6_ah_net_deflev
_ip6_ah_trans_deflev
_ip6_auto_flowlabel
_ip6_auto_linklocal
_ip6_clearpktopts
_ip6_copypktopts
_ip6_ctloutput
_ip6_dad_count
_ip6_def_policy
_ip6_defhlim
_ip6_defmcasthlim
_ip6_delaux
_ip6_desync_factor
_ip6_ecn_egress
_ip6_ecn_ingress
_ip6_esp_net_deflev
_ip6_esp_randpad
_ip6_esp_trans_deflev
_ip6_findaux
_ip6_flow_seq
_ip6_forward
_ip6_forward_rt
_ip6_forward_srcrt
_ip6_forwarding
_ip6_freemoptions
_ip6_freepcbopts
_ip6_fw_chain
_ip6_fw_chk_ptr
_ip6_fw_ctl_ptr
_ip6_fw_enable
_ip6_fw_init
_ip6_get_prevhdr
_ip6_getdstifaddr
_ip6_gif_hlim
_ip6_hdrnestlimit
_ip6_id
_ip6_init
_ip6_input
_ip6_ipsec_ecn
_ip6_keepfaith
_ip6_lasthdr
_ip6_log_interval
_ip6_log_time
_ip6_maxfragpackets
_ip6_maxfrags
_ip6_mforward
_ip6_mloopback
_ip6_mrouter
_ip6_mrouter_done
_ip6_mrouter_get
_ip6_mrouter_set
_ip6_mrouter_ver
_ip6_mrtproto
_ip6_mutex
_ip6_mutex_attr
_ip6_mutex_grp
_ip6_mutex_grp_attr
_ip6_nexthdr
_ip6_optlen
_ip6_ours_check_algorithm
_ip6_output
_ip6_process_hopopts
_ip6_protox
_ip6_rr_prune
_ip6_savecontrol
_ip6_sendredirects
_ip6_setpktoptions
_ip6_sourcecheck
_ip6_sourcecheck_interval
_ip6_sprintf
_ip6_temp_preferred_lifetime
_ip6_temp_regen_advance
_ip6_temp_valid_lifetime
_ip6_unknown_opt
_ip6_use_deprecated
_ip6_use_tempaddr
_ip6_v6only
_ip6intrq
_ip6q
_ip6stat
_ip_ctloutput
_ip_defttl
_ip_dn_ctl_ptr
_ip_dn_init
_ip_dn_io_ptr
_ip_dn_ruledel_ptr
_ip_drain
_ip_ecn_egress
_ip_ecn_ingress
_ip_freemoptions
_ip_fw_chk_ptr
_ip_fw_ctl_ptr
_ip_fw_default_rule
_ip_gif_ttl
_ip_id
_ip_init
_ip_input
_ip_linklocal_in_allowbadttl
_ip_linklocal_stat
_ip_mcast_src
_ip_mforward
_ip_mrouter
_ip_mrouter_done
_ip_mrouter_get
_ip_mrouter_set
_ip_mutex
_ip_mutex_attr
_ip_mutex_grp
_ip_mutex_grp_attr
_ip_optcopy
_ip_output
_ip_output_list
_ip_pkt_to_mbuf
_ip_protox
_ip_rsvp_done
_ip_rsvp_force_done
_ip_rsvp_init
_ip_rsvp_vif_done
_ip_rsvp_vif_init
_ip_rsvpd
_ip_rtaddr
_ip_savecontrol
_ip_slowtimo
_ip_srcroute
_ip_stripoptions
_ipc_bootstrap
_ipc_clock_enable
_ipc_clock_init
_ipc_entry_alloc
_ipc_entry_alloc_name
_ipc_entry_dealloc
_ipc_entry_get
_ipc_entry_grow_table
_ipc_entry_lookup
_ipc_entry_tree_collision
_ipc_hash_delete
_ipc_hash_global_delete
_ipc_hash_global_insert
_ipc_hash_global_lookup
_ipc_hash_global_mask
_ipc_hash_global_size
_ipc_hash_global_table
_ipc_hash_init
_ipc_hash_insert
_ipc_hash_local_delete
_ipc_hash_local_insert
_ipc_hash_local_lookup
_ipc_hash_lookup
_ipc_host_init
_ipc_init
_ipc_kernel_copy_map
_ipc_kernel_copy_map_size
_ipc_kernel_map
_ipc_kernel_map_size
_ipc_kmsg_alloc
_ipc_kmsg_clean
_ipc_kmsg_clean_body
_ipc_kmsg_clean_partial
_ipc_kmsg_clear_prealloc
_ipc_kmsg_copyin
_ipc_kmsg_copyin_body
_ipc_kmsg_copyin_from_kernel
_ipc_kmsg_copyin_header
_ipc_kmsg_copyout
_ipc_kmsg_copyout_body
_ipc_kmsg_copyout_dest
_ipc_kmsg_copyout_header
_ipc_kmsg_copyout_object
_ipc_kmsg_copyout_pseudo
_ipc_kmsg_copyout_size
_ipc_kmsg_copyout_to_kernel
_ipc_kmsg_dequeue
_ipc_kmsg_destroy
_ipc_kmsg_destroy_dest
_ipc_kmsg_enqueue
_ipc_kmsg_free
_ipc_kmsg_free_scatter
_ipc_kmsg_get
_ipc_kmsg_get_from_kernel
_ipc_kmsg_get_scatter
_ipc_kmsg_max_vm_space
_ipc_kmsg_put
_ipc_kmsg_put_to_kernel
_ipc_kmsg_queue_next
_ipc_kmsg_rmqueue
_ipc_kmsg_send
_ipc_kmsg_set_prealloc
_ipc_kmsg_zone
_ipc_kobject_destroy
_ipc_kobject_notify
_ipc_kobject_server
_ipc_kobject_set
_ipc_kobject_set_atomically
_ipc_mqueue_add
_ipc_mqueue_changed
_ipc_mqueue_copyin
_ipc_mqueue_destroy
_ipc_mqueue_full
_ipc_mqueue_init
_ipc_mqueue_member
_ipc_mqueue_post
_ipc_mqueue_rcv
_ipc_mqueue_receive
_ipc_mqueue_receive_continue
_ipc_mqueue_receive_results
_ipc_mqueue_release_msgcount
_ipc_mqueue_remove
_ipc_mqueue_remove_all
_ipc_mqueue_remove_from_all
_ipc_mqueue_select
_ipc_mqueue_send
_ipc_mqueue_set_qlimit
_ipc_mqueue_set_seqno
_ipc_notify_dead_name
_ipc_notify_no_senders
_ipc_notify_port_deleted
_ipc_notify_port_destroyed
_ipc_notify_send_once
_ipc_object_alloc
_ipc_object_alloc_dead
_ipc_object_alloc_dead_name
_ipc_object_alloc_name
_ipc_object_copyin
_ipc_object_copyin_from_kernel
_ipc_object_copyin_type
_ipc_object_copyout
_ipc_object_copyout_dest
_ipc_object_copyout_name
_ipc_object_destroy
_ipc_object_reference
_ipc_object_release
_ipc_object_rename
_ipc_object_translate
_ipc_object_translate_two
_ipc_object_zones
_ipc_port_alloc
_ipc_port_alloc_name
_ipc_port_alloc_special
_ipc_port_check_circularity
_ipc_port_clear_receiver
_ipc_port_copy_send
_ipc_port_copyout_send
_ipc_port_dealloc_special
_ipc_port_destroy
_ipc_port_dncancel
_ipc_port_dngrow
_ipc_port_dnnotify
_ipc_port_dnrequest
_ipc_port_init
_ipc_port_lookup_notify
_ipc_port_make_send
_ipc_port_make_send_locked
_ipc_port_make_sonce
_ipc_port_max
_ipc_port_multiple_lock_data
_ipc_port_nsrequest
_ipc_port_pdrequest
_ipc_port_release
_ipc_port_release_receive
_ipc_port_release_send
_ipc_port_release_sonce
_ipc_port_timestamp
_ipc_port_timestamp_data
_ipc_port_timestamp_lock_data
_ipc_processor_disable
_ipc_processor_enable
_ipc_processor_init
_ipc_processor_terminate
_ipc_pset_add
_ipc_pset_alloc
_ipc_pset_alloc_name
_ipc_pset_destroy
_ipc_pset_disable
_ipc_pset_enable
_ipc_pset_init
_ipc_pset_max
_ipc_pset_member
_ipc_pset_remove
_ipc_pset_remove_from_all
_ipc_pset_terminate
_ipc_right_check
_ipc_right_clean
_ipc_right_copyin
_ipc_right_copyin_check
_ipc_right_copyin_two
_ipc_right_copyin_undo
_ipc_right_copyout
_ipc_right_dealloc
_ipc_right_delta
_ipc_right_destroy
_ipc_right_dncancel
_ipc_right_dnrequest
_ipc_right_info
_ipc_right_inuse
_ipc_right_lookup_two_write
_ipc_right_lookup_write
_ipc_right_rename
_ipc_right_reverse
_ipc_space_clean
_ipc_space_create
_ipc_space_create_special
_ipc_space_destroy
_ipc_space_kernel
_ipc_space_max
_ipc_space_reference
_ipc_space_release
_ipc_space_reply
_ipc_space_zone
_ipc_splay_traverse_finish
_ipc_splay_traverse_next
_ipc_splay_traverse_start
_ipc_splay_tree_bounds
_ipc_splay_tree_delete
_ipc_splay_tree_init
_ipc_splay_tree_insert
_ipc_splay_tree_join
_ipc_splay_tree_lookup
_ipc_splay_tree_pick
_ipc_splay_tree_split
_ipc_table_alloc
_ipc_table_dnrequests
_ipc_table_dnrequests_size
_ipc_table_entries
_ipc_table_entries_size
_ipc_table_fill
_ipc_table_free
_ipc_table_init
_ipc_table_realloc
_ipc_task_disable
_ipc_task_enable
_ipc_task_init
_ipc_task_reset
_ipc_task_terminate
_ipc_thread_disable
_ipc_thread_init
_ipc_thread_reset
_ipc_thread_terminate
_ipc_tree_entry_max
_ipc_tree_entry_zone
_ipcomp4_input
_ipcomp4_output
_ipcomp6_input
_ipcomp6_output
_ipcomp_algorithm_lookup
_ipcperm
_ipf_addv4
_ipf_addv6
_ipf_inject_input
_ipf_inject_output
_ipf_remove
_ipflow_create
_ipflow_fastforward
_ipflow_slowtimo
_ipforwarding
_ipfw_convert_from_latest
_ipfw_convert_to_latest
_ipfw_get_command_and_version
_ipfw_init
_ipfw_mutex
_ipfw_mutex_attr
_ipfw_mutex_grp
_ipfw_mutex_grp_attr
_ipfwsyslog
_ipintrq
_ipintrq_present
_ipip_input
_ipport_firstauto
_ipport_hifirstauto
_ipport_hilastauto
_ipport_lastauto
_ipport_lowfirstauto
_ipport_lowlastauto
_ipsec4_delete_pcbpolicy
_ipsec4_get_policy
_ipsec4_getpolicybyaddr
_ipsec4_getpolicybysock
_ipsec4_hdrsiz
_ipsec4_in_reject
_ipsec4_in_reject_so
_ipsec4_logpacketstr
_ipsec4_output
_ipsec4_set_policy
_ipsec4_tunnel_validate
_ipsec6_delete_pcbpolicy
_ipsec6_get_policy
_ipsec6_getpolicybyaddr
_ipsec6_getpolicybysock
_ipsec6_hdrsiz
_ipsec6_in_reject
_ipsec6_in_reject_so
_ipsec6_logpacketstr
_ipsec6_output_trans
_ipsec6_output_tunnel
_ipsec6_set_policy
_ipsec6_tunnel_validate
_ipsec6stat
_ipsec_addhist
_ipsec_bypass
_ipsec_chkreplay
_ipsec_clearhist
_ipsec_copy_policy
_ipsec_copypkt
_ipsec_debug
_ipsec_delaux
_ipsec_dumpmbuf
_ipsec_get_reqlevel
_ipsec_gethist
_ipsec_getsocket
_ipsec_hdrsiz_tcp
_ipsec_init_policy
_ipsec_logsastr
_ipsec_setsocket
_ipsec_updatereplay
_ipsecstat
_ipstat
_iptime
_is_64signalregset
_is_file_clean
_is_io_async_method_scalarI_scalarO
_is_io_async_method_scalarI_structureI
_is_io_async_method_scalarI_structureO
_is_io_async_method_structureI_structureO
_is_io_catalog_get_data
_is_io_catalog_get_gen_count
_is_io_catalog_module_loaded
_is_io_catalog_reset
_is_io_catalog_send_data
_is_io_catalog_terminate
_is_io_connect_add_client
_is_io_connect_get_notification_semaphore
_is_io_connect_get_service
_is_io_connect_map_memory
_is_io_connect_method_scalarI_scalarO
_is_io_connect_method_scalarI_structureI
_is_io_connect_method_scalarI_structureO
_is_io_connect_method_structureI_structureO
_is_io_connect_set_notification_port
_is_io_connect_set_properties
_is_io_connect_unmap_memory
_is_io_iterator_is_valid
_is_io_iterator_next
_is_io_iterator_reset
_is_io_make_matching
_is_io_object_conforms_to
_is_io_object_get_bundle_identifier
_is_io_object_get_class
_is_io_object_get_retain_count
_is_io_object_get_superclass
_is_io_registry_create_iterator
_is_io_registry_entry_create_iterator
_is_io_registry_entry_from_path
_is_io_registry_entry_get_child_iterator
_is_io_registry_entry_get_location_in_plane
_is_io_registry_entry_get_name
_is_io_registry_entry_get_name_in_plane
_is_io_registry_entry_get_parent_iterator
_is_io_registry_entry_get_path
_is_io_registry_entry_get_properties
_is_io_registry_entry_get_property
_is_io_registry_entry_get_property_bytes
_is_io_registry_entry_get_property_recursively
_is_io_registry_entry_in_plane
_is_io_registry_entry_set_properties
_is_io_registry_get_root_entry
_is_io_registry_iterator_enter_entry
_is_io_registry_iterator_exit_entry
_is_io_service_acknowledge_notification
_is_io_service_add_interest_notification
_is_io_service_add_notification
_is_io_service_add_notification_old
_is_io_service_add_notification_ool
_is_io_service_close
_is_io_service_get_busy_state
_is_io_service_get_matching_services
_is_io_service_get_matching_services_ool
_is_io_service_get_state
_is_io_service_match_property_table
_is_io_service_match_property_table_ool
_is_io_service_open
_is_io_service_open_extended
_is_io_service_request_probe
_is_io_service_wait_quiet
_is_iokit_subsystem
_is_kerneltask
_is_suser
_is_suser1
_is_thread_active
_is_thread_idle
_is_thread_running
_isargsep
_isdisk
_isinferior
_iskmemdev
_isn_ctx
_isn_last_reseed
_isn_secret
_iso_font
_iso_nchstats
_isodirino
_isofncmp
_isofntrans
_isohash
_isohashtbl
_isonullname
_issetugid
_issignal
_issingleuser
_isync_mfdec
_itimerdecr
_itimerfix
_itoa
_jnl_group_attr
_jnl_lock_attr
_jnl_mutex_group
_journal_active
_journal_close
_journal_create
_journal_end_transaction
_journal_flush
_journal_init
_journal_is_clean
_journal_kill_block
_journal_modify_block_abort
_journal_modify_block_end
_journal_modify_block_start
_journal_open
_journal_owner
_journal_start_transaction
_kKnownAnswer
_kOSBooleanFalse
_kOSBooleanTrue
_k_zone
_k_zone_max
_kalloc
_kalloc_canblock
_kalloc_fake_zone_info
_kalloc_init
_kalloc_kernmap_size
_kalloc_large_inuse
_kalloc_large_max
_kalloc_large_total
_kalloc_largest_allocated
_kalloc_map
_kalloc_map_size
_kalloc_max
_kalloc_max_prerounded
_kalloc_noblock
_kalloc_zone
_kau_close
_kau_free
_kau_init
_kau_open
_kau_to_attr32
_kau_to_attr64
_kau_to_file
_kau_to_header
_kau_to_header32
_kau_to_header64
_kau_to_socket
_kau_write
_kaudit_to_bsm
_kauth_acl_alloc
_kauth_acl_evaluate
_kauth_acl_free
_kauth_acl_inherit
_kauth_authorize_action
_kauth_authorize_allow
_kauth_authorize_fileop
_kauth_authorize_fileop_has_listeners
_kauth_authorize_generic
_kauth_authorize_process
_kauth_copyinfilesec
_kauth_cred_alloc
_kauth_cred_copy_real
_kauth_cred_create
_kauth_cred_dup
_kauth_cred_find
_kauth_cred_get
_kauth_cred_get_with_ref
_kauth_cred_getgid
_kauth_cred_getguid
_kauth_cred_getntsid
_kauth_cred_getuid
_kauth_cred_gid2guid
_kauth_cred_gid2ntsid
_kauth_cred_guid2gid
_kauth_cred_guid2ntsid
_kauth_cred_guid2uid
_kauth_cred_init
_kauth_cred_ismember_gid
_kauth_cred_ismember_guid
_kauth_cred_issuser
_kauth_cred_ntsid2gid
_kauth_cred_ntsid2guid
_kauth_cred_ntsid2uid
_kauth_cred_proc_ref
_kauth_cred_ref
_kauth_cred_rele
_kauth_cred_setauditinfo
_kauth_cred_setegid
_kauth_cred_seteuid
_kauth_cred_setgid
_kauth_cred_setgroups
_kauth_cred_setsvuidgid
_kauth_cred_setuid
_kauth_cred_setuidgid
_kauth_cred_uid2guid
_kauth_cred_uid2ntsid
_kauth_cred_unref
_kauth_deregister_scope
_kauth_filesec_acl_setendian
_kauth_filesec_alloc
_kauth_filesec_free
_kauth_getgid
_kauth_getrgid
_kauth_getruid
_kauth_getuid
_kauth_groups
_kauth_groups_init
_kauth_guid_equal
_kauth_identity_init
_kauth_init
_kauth_lck_grp
_kauth_listen_scope
_kauth_ntsid_equal
_kauth_null_guid
_kauth_register_scope
_kauth_resolver_done
_kauth_resolver_init
_kauth_resolver_submitted
_kauth_resolver_unsubmitted
_kauth_scope_fileop
_kauth_scope_generic
_kauth_scope_process
_kauth_unlisten_scope
_kauth_wellknown_guid
_kd_bufsize
_kd_cpus
_kd_entropy_buffer
_kd_entropy_bufsize
_kd_entropy_buftomem
_kd_entropy_count
_kd_entropy_indx
_kd_mapcount
_kd_mapptr
_kd_mapsize
_kd_maptomem
_kdb_printf
_kdb_trap
_kdbg_bootstrap
_kdbg_control
_kdbg_control_chud
_kdbg_getentropy
_kdbg_getreg
_kdbg_mapinit
_kdbg_read
_kdbg_readmap
_kdbg_reinit
_kdbg_setpid
_kdbg_setpidex
_kdbg_setreg
_kdbg_setrtcdec
_kdbg_trace_data
_kdbg_trace_string
_kdbip
_kdcopybuf
_kdebug_chudhook
_kdebug_enable
_kdebug_flags
_kdebug_ops
_kdebug_slowcheck
_kdebug_trace
_kdlog_beg
_kdlog_end
_kdlog_value1
_kdlog_value2
_kdlog_value3
_kdlog_value4
_kdp
_kdp_backtrace
_kdp_call
_kdp_call_kdb
_kdp_copy_phys
_kdp_dabr
_kdp_disable_arp
_kdp_dump_trap
_kdp_exception
_kdp_exception_ack
_kdp_flag
_kdp_get_interface
_kdp_get_ip_address
_kdp_get_mac_addr
_kdp_getc
_kdp_intr_disbl
_kdp_intr_enbl
_kdp_machine_hostinfo
_kdp_machine_read_regs
_kdp_machine_write_regs
_kdp_ml_get_breakinsn
_kdp_noisy
_kdp_packet
_kdp_panic
_kdp_panic_dump
_kdp_pmap
_kdp_print_backtrace
_kdp_print_registers
_kdp_raise_exception
_kdp_read_io
_kdp_reboot
_kdp_register_send_receive
_kdp_remove_all_breakpoints
_kdp_reset
_kdp_send_crashdump_data
_kdp_send_crashdump_pkt
_kdp_set_gateway_mac
_kdp_set_interface
_kdp_set_ip_and_mac_addresses
_kdp_snapshot
_kdp_snapshot_postflight
_kdp_snapshot_preflight
_kdp_sr_dump
_kdp_src_high32
_kdp_stack_snapshot_bytes_traced
_kdp_stack_snapshot_geterror
_kdp_stackshot
_kdp_sync_cache
_kdp_trans_off
_kdp_trap
_kdp_trap_codes
_kdp_unregister_send_receive
_kdp_us_spin
_kdp_vm_read
_kdp_vm_write
_kdp_vtophys
_kern_close_file_for_direct_io
_kern_dump
_kern_event_init
_kern_invalid
_kern_invalid_debug
_kern_open_file_for_direct_io
_kern_os_free
_kern_os_malloc
_kern_os_malloc_size
_kern_os_realloc
_kern_sysctl
_kern_write_file
_kernacc
_kernelLinkerPresent
_kernel_args_buf
_kernel_bootstrap
_kernel_debug
_kernel_debug1
_kernel_flock
_kernel_map
_kernel_memory_allocate
_kernel_object
_kernel_object_iopl_request
_kernel_pageable_map
_kernel_pmap
_kernel_pmap_phys
_kernel_pmap_store
_kernel_set_special_port
_kernel_sysctl
_kernel_task
_kernel_task_create
_kernel_thread
_kernel_thread_create
_kernel_thread_start
_kernel_thread_start_priority
_kernel_upl_abort
_kernel_upl_abort_range
_kernel_upl_commit
_kernel_upl_commit_range
_kernel_upl_map
_kernel_upl_unmap
_kernproc
_kev_msg_post
_kev_post_msg
_kev_vendor_code_find
_kevent
_kevent_register
_kevent_scan
_key_allocsa
_key_allocsp
_key_cb
_key_checkrequest
_key_checktunnelsanity
_key_debug_level
_key_domain_init
_key_dst
_key_freereg
_key_freesav
_key_freesp
_key_gettunnel
_key_init
_key_ismyaddr
_key_msg2sp
_key_newsp
_key_output
_key_parse
_key_random
_key_randomfill
_key_sa_recordxfer
_key_sa_routechange
_key_sa_stir_iv
_key_sendup_mbuf
_key_sp2msg
_key_spdacquire
_key_src
_key_timehandler
_key_usrreqs
_keydb_delsecashead
_keydb_delsecpolicy
_keydb_delsecreg
_keydb_delsecreplay
_keydb_freesecasvar
_keydb_newsecashead
_keydb_newsecasvar
_keydb_newsecpolicy
_keydb_newsecreg
_keydb_newsecreplay
_keydb_refsecasvar
_keydomain
_keystat
_keysw
_kfree
_kget
_kill
_killpg1
_killprint
_killresv
_kinfo_vdebug
_kld_file_cleanup_all_resources
_kld_file_getaddr
_kld_file_lookupsymbol
_kld_file_map
_kld_file_merge_OSObjects
_kld_file_patch_OSObjects
_kld_file_prepare_for_link
_klist_init
_klogwakeup
_km_tty
_kmclose
_kmem_alloc
_kmem_alloc_aligned
_kmem_alloc_contig
_kmem_alloc_pageable
_kmem_alloc_pages
_kmem_alloc_wired
_kmem_free
_kmem_init
_kmem_mb_alloc
_kmem_realloc
_kmem_remap_pages
_kmem_suballoc
_kmeminit
_kmemstats
_kmgetc
_kminit
_kmioctl
_kmod
_kmod_cmd_queue
_kmod_control
_kmod_create
_kmod_create_fake
_kmod_create_fake_with_address
_kmod_create_internal
_kmod_default_start
_kmod_default_stop
_kmod_destroy
_kmod_destroy_fake
_kmod_destroy_internal
_kmod_dump
_kmod_dump_log
_kmod_finalize_cpp
_kmod_get_info
_kmod_init
_kmod_initialize_cpp
_kmod_load_extension
_kmod_load_extension_with_dependencies
_kmod_load_from_cache
_kmod_load_function
_kmod_load_request
_kmod_lock
_kmod_lookupbyid
_kmod_lookupbyid_locked
_kmod_lookupbyname
_kmod_lookupbyname_locked
_kmod_queue_cmd
_kmod_queue_lock
_kmod_release
_kmod_retain
_kmod_send_generic
_kmod_start_or_stop
_kmod_unload_cache
_kmopen
_kmputc
_kmread
_kmwrite
_kmzones
_knote
_knote_attach
_knote_detach
_knote_fdclose
_knote_init
_kprintf
_kprintf_lock
_kq_lck_attr
_kq_lck_grp
_kq_lck_grp_attr
_kqueue
_kqueue_alloc
_kqueue_dealloc
_kqueue_from_portset_np
_kqueue_portset_np
_kqueue_stat
_krealloc
_krpc_call
_krpc_portmap
_ktrace
_ktrcsw
_ktrgenio
_ktrnamei
_ktrpsig
_ktrsyscall
_ktrsysret
_kvprintf
_kvtophys
_lap_online
_lastTrace
_last_lowpri_IO_timestamp
_last_normal_IO_timestamp
_last_page_zf
_last_zone
_lbolt
_lchown
_lck_attr_alloc_init
_lck_attr_free
_lck_attr_rw_shared_priority
_lck_attr_setdebug
_lck_attr_setdefault
_lck_grp_alloc_init
_lck_grp_attr_alloc_init
_lck_grp_attr_free
_lck_grp_attr_setdefault
_lck_grp_attr_setstat
_lck_grp_deallocate
_lck_grp_free
_lck_grp_init
_lck_grp_lckcnt_decr
_lck_grp_lckcnt_incr
_lck_grp_reference
_lck_mod_init
_lck_mtx_alloc_init
_lck_mtx_assert
_lck_mtx_destroy
_lck_mtx_ext_init
_lck_mtx_ext_unlock
_lck_mtx_free
_lck_mtx_ilk_unlock
_lck_mtx_init
_lck_mtx_lock
_lck_mtx_lock_acquire
_lck_mtx_lock_ext
_lck_mtx_lock_wait
_lck_mtx_sleep
_lck_mtx_sleep_deadline
_lck_mtx_try_lock
_lck_mtx_try_lock_ext
_lck_mtx_unlock
_lck_mtx_unlock_wakeup
_lck_mtx_unlockspin_wakeup
_lck_rw_alloc_init
_lck_rw_check_type
_lck_rw_destroy
_lck_rw_done
_lck_rw_done_ext
_lck_rw_done_gen
_lck_rw_ext_backtrace
_lck_rw_ext_init
_lck_rw_free
_lck_rw_ilk_lock
_lck_rw_ilk_unlock
_lck_rw_init
_lck_rw_lock
_lck_rw_lock_exclusive
_lck_rw_lock_exclusive_ext
_lck_rw_lock_exclusive_gen
_lck_rw_lock_exclusive_to_shared
_lck_rw_lock_exclusive_to_shared_ext
_lck_rw_lock_exclusive_to_shared_gen
_lck_rw_lock_shared
_lck_rw_lock_shared_ext
_lck_rw_lock_shared_gen
_lck_rw_lock_shared_to_exclusive
_lck_rw_lock_shared_to_exclusive_ext
_lck_rw_lock_shared_to_exclusive_gen
_lck_rw_sleep
_lck_rw_sleep_deadline
_lck_rw_try_lock
_lck_rw_try_lock_exclusive
_lck_rw_try_lock_exclusive_ext
_lck_rw_try_lock_exclusive_gen
_lck_rw_try_lock_shared
_lck_rw_try_lock_shared_ext
_lck_rw_try_lock_shared_gen
_lck_rw_unlock
_lck_rw_unlock_exclusive
_lck_rw_unlock_shared
_lck_spin_alloc_init
_lck_spin_destroy
_lck_spin_free
_lck_spin_init
_lck_spin_lock
_lck_spin_sleep
_lck_spin_sleep_deadline
_lck_spin_try_lock
_lck_spin_unlock
_ldisc_deregister
_ldisc_register
_leavepgrp
_ledger_copy
_ledger_create
_ledger_enter
_ledger_init
_ledger_read
_ledger_server
_ledger_server_routine
_ledger_subsystem
_ledger_terminate
_ledger_transfer
_legal_vif_num
_lf_advlock
_lightning_bolt
_limcopy
_limit0
_linesw
_link
_lio_listio
_listen
_listxattr
_llinfo_nd6
_lo_ifp
_lo_reg_if_mods
_load_init_program
_load_ipfw
_load_kernel_extension
_load_machfile
_load_shared_file
_local_log2
_local_proto_count
_localdomain
_lock_acquire
_lock_alloc
_lock_alloc_EXT
_lock_debugger
_lock_done
_lock_done_EXT
_lock_free
_lock_free_EXT
_lock_fsnode
_lock_handoff
_lock_handoff_accept
_lock_init
_lock_init_EXT
_lock_make_stable
_lock_make_unstable
_lock_read
_lock_read_EXT
_lock_read_to_write
_lock_read_to_write_EXT
_lock_release
_lock_set_create
_lock_set_dereference
_lock_set_destroy
_lock_set_event
_lock_set_handoff
_lock_set_init
_lock_set_reference
_lock_set_server
_lock_set_server_routine
_lock_set_subsystem
_lock_trace
_lock_try
_lock_wait_time
_lock_write
_lock_write_EXT
_lock_write_to_read
_lock_write_to_read_EXT
_lockinit
_lockmgr
_lockmgr_printinfo
_lockstatus
_log
_logPanicDataToScreen
_log_for_en1
_log_in_vain
_log_level
_log_nx_failure
_log_open
_log_putc
_logclose
_logioctl
_logopen
_logpri
_logread
_logselect
_logsoftc
_logwakeup
_loif
_lookup
_lookup_default_shared_region
_loopattach
_loopattach_done
_lowGlo
_lowpri_IO_delay_msecs
_lowpri_IO_window
_lowpri_IO_window_msecs
_lru_is_stale
_lseek
_lsf_mapping_pool_gauge
_lsf_remove_regions_mappings
_lsf_zone
_lstat
_lstat_extended
_lstatv
_m_adj
_m_aux_add
_m_aux_copy
_m_aux_delete
_m_aux_find
_m_cat
_m_clattach
_m_cltom
_m_copy_pkthdr
_m_copyback
_m_copydata
_m_copym
_m_copym_with_hdrs
_m_devget
_m_dtom
_m_dup
_m_free
_m_freem
_m_freem_list
_m_get
_m_getclr
_m_gethdr
_m_getpacket
_m_getpackethdrs
_m_getpackets
_m_leadingspace
_m_lgbuf_alloc
_m_lgbuf_free
_m_mcheck
_m_mchtype
_m_mclalloc
_m_mclfree
_m_mclget
_m_mclhasreference
_m_mclref
_m_mclunref
_m_mtocl
_m_mtod
_m_prepend
_m_prepend_2
_m_pulldown
_m_pullup
_m_reclaim
_m_retry
_m_retryhdr
_m_split
_m_tag_alloc
_m_tag_copy
_m_tag_copy_chain
_m_tag_delete
_m_tag_delete_chain
_m_tag_first
_m_tag_free
_m_tag_init
_m_tag_locate
_m_tag_next
_m_tag_prepend
_m_tag_unlink
_m_trailingspace
_m_want
_mac_roman_to_unicode
_mac_roman_to_utf8
_mach_absolute_time
_mach_absolute_time_32
_mach_absolute_time_64
_mach_absolute_time_lp64
_mach_assert
_mach_destroy_memory_entry
_mach_factor
_mach_get_vm_end
_mach_get_vm_start
_mach_host_server
_mach_host_server_routine
_mach_host_subsystem
_mach_make_memory_entry
_mach_make_memory_entry_64
_mach_memory_entry_page_op
_mach_memory_entry_port_release
_mach_memory_entry_purgable_control
_mach_memory_entry_range_op
_mach_memory_object_memory_entry
_mach_memory_object_memory_entry_64
_mach_msg_overwrite
_mach_msg_overwrite_trap
_mach_msg_receive
_mach_msg_receive_continue
_mach_msg_receive_results
_mach_msg_rpc_from_kernel
_mach_msg_send
_mach_msg_send_from_kernel
_mach_msg_trap
_mach_notify_dead_name
_mach_notify_no_senders
_mach_notify_port_deleted
_mach_notify_port_destroyed
_mach_notify_send_once
_mach_port_allocate
_mach_port_allocate_full
_mach_port_allocate_name
_mach_port_allocate_qos
_mach_port_deallocate
_mach_port_destroy
_mach_port_dnrequest_info
_mach_port_extract_member
_mach_port_extract_right
_mach_port_get_attributes
_mach_port_get_refs
_mach_port_get_set_status
_mach_port_get_srights
_mach_port_gst_helper
_mach_port_insert_member
_mach_port_insert_right
_mach_port_kernel_object
_mach_port_mod_refs
_mach_port_move_member
_mach_port_names
_mach_port_names_helper
_mach_port_rename
_mach_port_request_notification
_mach_port_server
_mach_port_server_routine
_mach_port_set_attributes
_mach_port_set_mscount
_mach_port_set_seqno
_mach_port_space_info
_mach_port_subsystem
_mach_port_type
_mach_ports_lookup
_mach_ports_register
_mach_reply_port
_mach_timebase_info_trap
_mach_trap_count
_mach_trap_table
_mach_vm_allocate
_mach_vm_behavior_set
_mach_vm_copy
_mach_vm_deallocate
_mach_vm_inherit
_mach_vm_machine_attribute
_mach_vm_map
_mach_vm_msync
_mach_vm_page_query
_mach_vm_protect
_mach_vm_read
_mach_vm_read_list
_mach_vm_read_overwrite
_mach_vm_region
_mach_vm_region_info
_mach_vm_region_info_64
_mach_vm_region_recurse
_mach_vm_remap
_mach_vm_server
_mach_vm_server_routine
_mach_vm_subsystem
_mach_vm_wire
_mach_vm_write
_mach_wait_until_trap
_machdep_sysctl_list
_machine_act_terminate
_machine_boot_info
_machine_conf
_machine_delay_until
_machine_exception
_machine_idle
_machine_idle_ret
_machine_info
_machine_init
_machine_load_context
_machine_processor_shutdown
_machine_read64
_machine_set_current_thread
_machine_signal_idle
_machine_stack_attach
_machine_stack_detach
_machine_stack_handoff
_machine_startup
_machine_switch_context
_machine_thread_create
_machine_thread_destroy
_machine_thread_dup
_machine_thread_get_kern_state
_machine_thread_get_state
_machine_thread_init
_machine_thread_set_state
_machine_thread_state_initialize
_machine_thread_terminate_self
_machine_trace_thread
_machine_trace_thread64
_macx_backing_store_recovery
_macx_backing_store_suspend
_macx_swapinfo
_macx_swapoff
_macx_swapon
_macx_triggers
_madvise
_mapCtl
_mapInsert
_mapLog
_mapRemove
_mapSearch
_mapSearchFull
_mapSetLists
_mapSetUp
_mapSkipListVerify
_mapSkipListVerifyC
_map_fd
_map_fd_funneled
_map_shared_file
_mapalc1
_mapalc2
_mapdebug
_mapping_adjust
_mapping_adjust_call
_mapping_alloc
_mapping_clr_mod
_mapping_clr_ref
_mapping_clr_refmod
_mapping_drop_busy
_mapping_fake_zone_info
_mapping_find
_mapping_free
_mapping_free_init
_mapping_free_prime
_mapping_hibernate_flush
_mapping_init
_mapping_make
_mapping_map
_mapping_p2v
_mapping_phys_lookup
_mapping_phys_unused
_mapping_prealloc
_mapping_protect
_mapping_protect_phys
_mapping_relpre
_mapping_remove
_mapping_set_mod
_mapping_set_ref
_mapping_tst_mod
_mapping_tst_ref
_mapping_tst_refmod
_mapping_verify
_mappingdeb0
_mappingdeb1
_master_cpu
_master_device_port
_master_processor
_maxDec
_max_datalen
_max_doubled_size
_max_hdr
_max_linkhdr
_max_mem
_max_nbuf_headers
_max_ncpus
_max_pages_trigger_port
_max_poll_computation
_max_poll_quanta
_max_protohdr
_max_rt_quantum
_max_unsafe_computation
_max_unsafe_quanta
_max_valid_dma_address
_max_valid_stack_address
_maxdmap
_maxfiles
_maxfilesperproc
_maximum_pages_free
_maxpipekva
_maxproc
_maxprocperuid
_maxsmap
_maxsockets
_maxvfsconf
_maxvfsslots
_mb_map
_mbigfree
_mbstat
_mbuf_adj
_mbuf_align_32
_mbuf_allocpacket
_mbuf_aux_add
_mbuf_aux_delete
_mbuf_aux_find
_mbuf_clear_csum_performed
_mbuf_clear_csum_requested
_mbuf_clear_vlan_tag
_mbuf_copy_pkthdr
_mbuf_copyback
_mbuf_copydata
_mbuf_copym
_mbuf_data
_mbuf_data_to_physical
_mbuf_datastart
_mbuf_dup
_mbuf_flags
_mbuf_free
_mbuf_freem
_mbuf_freem_list
_mbuf_get
_mbuf_get_csum_performed
_mbuf_get_csum_requested
_mbuf_get_vlan_tag
_mbuf_getcluster
_mbuf_gethdr
_mbuf_getpacket
_mbuf_inbound_modified
_mbuf_leadingspace
_mbuf_len
_mbuf_maxlen
_mbuf_mclget
_mbuf_mclhasreference
_mbuf_mclref
_mbuf_mclunref
_mbuf_mlock
_mbuf_mlock_attr
_mbuf_mlock_grp
_mbuf_mlock_grp_attr
_mbuf_next
_mbuf_nextpkt
_mbuf_outbound_finalize
_mbuf_pkthdr_header
_mbuf_pkthdr_len
_mbuf_pkthdr_rcvif
_mbuf_pkthdr_setheader
_mbuf_pkthdr_setlen
_mbuf_pkthdr_setrcvif
_mbuf_prepend
_mbuf_pulldown
_mbuf_pullup
_mbuf_set_csum_performed
_mbuf_set_csum_requested
_mbuf_set_vlan_tag
_mbuf_setdata
_mbuf_setflags
_mbuf_setflags_mask
_mbuf_setlen
_mbuf_setnext
_mbuf_setnextpkt
_mbuf_settype
_mbuf_split
_mbuf_stats
_mbuf_tag_allocate
_mbuf_tag_find
_mbuf_tag_free
_mbuf_tag_id_find
_mbuf_trailingspace
_mbuf_type
_mbutl
_mckFlags
_mcl_paddr
_mcl_to_paddr
_mclfree
_mclrefcnt
_mcpus_lock_initialized
_mcpus_state
_md_prepare_for_shutdown
_mdev
_mdevBMajor
_mdevCMajor
_mdevadd
_mdevinit
_mdevlookup
_mem_actual
_mem_size
_memcmp
_memcpy
_memcpy_nop_if_32bit
_memmove
_memname
_memory_barrier_mp32
_memory_barrier_mp64
_memory_barrier_up
_memory_manager_default
_memory_manager_default_cluster
_memory_manager_default_lock
_memory_object_change_attributes
_memory_object_control_deallocate
_memory_object_control_disable
_memory_object_control_reference
_memory_object_control_server
_memory_object_control_server_routine
_memory_object_control_subsystem
_memory_object_control_uiomove
_memory_object_create
_memory_object_create_named
_memory_object_data_initialize
_memory_object_data_request
_memory_object_data_return
_memory_object_data_unlock
_memory_object_deallocate
_memory_object_default_deallocate
_memory_object_default_reference
_memory_object_default_server
_memory_object_default_server_routine
_memory_object_destroy
_memory_object_get_attributes
_memory_object_init
_memory_object_iopl_request
_memory_object_lock_page
_memory_object_lock_request
_memory_object_name_server
_memory_object_name_server_routine
_memory_object_name_subsystem
_memory_object_page_op
_memory_object_pages_resident
_memory_object_range_op
_memory_object_recover_named
_memory_object_reference
_memory_object_release_name
_memory_object_server
_memory_object_server_routine
_memory_object_super_upl_request
_memory_object_synchronize
_memory_object_synchronize_completed
_memory_object_terminate
_memory_object_unmap
_memory_object_upl_request
_memset
_memset_64
_memset_g3
_memset_g4
_memset_g5
_meta_is_stale
_meta_zones
_mf6ctable
_mfdar
_mflr
_mfmmcr0
_mfmmcr1
_mfmmcr2
_mfmsr
_mfmsr64
_mfpmc1
_mfpmc2
_mfpmc3
_mfpmc4
_mfpvr
_mfree
_mfreelater
_mfrtcl
_mfrtcu
_mfsda
_mfsia
_mfspr64
_mfsrin
_mftb
_mftbu
_microtime
_microuptime
_mig_buckets
_mig_dealloc_reply_port
_mig_e
_mig_get_reply_port
_mig_init
_mig_object_deallocate
_mig_object_destroy
_mig_object_init
_mig_object_no_senders
_mig_object_reference
_mig_put_reply_port
_mig_reply_size
_mig_strncpy
_mig_table_max_displ
_mig_user_allocate
_mig_user_deallocate
_min_pages_trigger_port
_min_rt_quantum
_min_std_quantum
_min_valid_stack_address
_mincore
_minherit
_minimum_pages_remaining
_minphys
_mk_timer_arm_trap
_mk_timer_cancel_trap
_mk_timer_create_trap
_mk_timer_destroy_trap
_mk_timer_init
_mk_timer_port_destroy
_mkcomplex
_mkdir
_mkdir_extended
_mkfifo
_mkfifo_extended
_mknod
_ml_at_interrupt_context
_ml_cause_interrupt
_ml_cpu_down
_ml_cpu_get_info
_ml_cpu_up
_ml_enable_cache_level
_ml_enable_nap
_ml_get_bouncepool_info
_ml_get_interrupts_enabled
_ml_get_max_cpus
_ml_get_timebase
_ml_hdec_ratio
_ml_init_interrupt
_ml_init_lock_timeout
_ml_init_max_cpus
_ml_install_interrupt_handler
_ml_io_map
_ml_mem_backoff
_ml_phys_read
_ml_phys_read_64
_ml_phys_read_byte
_ml_phys_read_byte_64
_ml_phys_read_double
_ml_phys_read_double_64
_ml_phys_read_half
_ml_phys_read_half_64
_ml_phys_read_word
_ml_phys_read_word_64
_ml_phys_write
_ml_phys_write_64
_ml_phys_write_byte
_ml_phys_write_byte_64
_ml_phys_write_double
_ml_phys_write_double_64
_ml_phys_write_half
_ml_phys_write_half_64
_ml_phys_write_word
_ml_phys_write_word_64
_ml_ppc_do_sleep
_ml_ppc_sleep
_ml_probe_read
_ml_probe_read_64
_ml_probe_read_mck
_ml_probe_read_mck_64
_ml_processor_register
_ml_read_temp
_ml_restore
_ml_scom_read
_ml_scom_write
_ml_sense_nmi
_ml_set_interrupts_enabled
_ml_set_physical
_ml_set_physical_disabled
_ml_set_physical_get_ffs
_ml_set_processor_speed
_ml_set_processor_speed_dfs
_ml_set_processor_speed_dpll
_ml_set_processor_speed_powertune
_ml_set_processor_speed_slave
_ml_set_processor_voltage
_ml_set_translation_off
_ml_static_malloc
_ml_static_mfree
_ml_static_ptovirt
_ml_thread_policy
_ml_thrm_init
_ml_thrm_set
_ml_throttle
_ml_vtophys
_mlckPatch_isync
_mlckePatch_isync
_mld6_fasttimeo
_mld6_init
_mld6_input
_mld6_start_listening
_mld6_stop_listening
_mlock
_mlockall
_mltelckPatch_isync
_mltlckPatch_isync
_mmFree
_mmGetPtr
_mmInit
_mmMalloc
_mmReturnPtr
_mmap
_mmioctl
_mmread
_mmrw
_mmwrite
_mnt_lck_attr
_mnt_lck_grp
_mnt_lck_grp_attr
_mnt_list_lck_attr
_mnt_list_lck_grp
_mnt_list_lck_grp_attr
_mnt_list_mtx_lock
_mntid_gen
_mntid_slock
_mntvnode_slock
_modetodirtype
_modwatch
_mount
_mount_drop
_mount_dropcrossref
_mount_isdrained
_mount_iterdrain
_mount_iterdrop
_mount_iterref
_mount_iterreset
_mount_list_add
_mount_list_lock
_mount_list_lookupby_fsid
_mount_list_remove
_mount_list_unlock
_mount_lock
_mount_lock_destroy
_mount_lock_init
_mount_lock_renames
_mount_lookupby_volfsid
_mount_ref
_mount_refdrain
_mount_unlock
_mount_unlock_renames
_mountlist
_mountroot
_mountroot_post_hook
_mprotect
_mremap
_mrt6_ioctl
_mrt6stat
_mrt_ioctl
_msg_ool_size_small
_msg_receive_error
_msgbufp
_msgctl
_msgctl_to_event
_msgget
_msghdrs
_msginfo
_msgmaps
_msgpool
_msgrcv
_msgsnd
_msgsys
_msleep
_msleep0
_msleep1
_msqids
_msync
_mtdar
_mtdec
_mtmmcr0
_mtmmcr1
_mtmmcr2
_mtmsr
_mtmsr64
_mtpmc1
_mtpmc2
_mtpmc3
_mtpmc4
_mtsdr1
_mtspr64
_mtsrin
_mulckPatch_eieio
_mulckPatch_isync
_mulckePatch_eieio
_mulckePatch_isync
_multicast_register_if
_munge_d
_munge_dd
_munge_ddd
_munge_dddd
_munge_ddddd
_munge_dddddd
_munge_ddddddd
_munge_dddddddd
_munge_l
_munge_stat
_munge_w
_munge_wl
_munge_wlw
_munge_wsw
_munge_ww
_munge_wws
_munge_www
_munge_wwwl
_munge_wwwlww
_munge_wwwsw
_munge_wwww
_munge_wwwwl
_munge_wwwww
_munge_wwwwwl
_munge_wwwwww
_munge_wwwwwww
_munge_wwwwwwww
_munlock
_munlockall
_munmap
_mutex_alloc
_mutex_alloc_EXT
_mutex_free
_mutex_free_EXT
_mutex_init
_mutex_init_EXT
_mutex_lock
_mutex_lock_EXT
_mutex_pause
_mutex_try
_mutex_try_EXT
_mutex_unlock
_mutex_unlock_EXT
_mutex_unlock_rwcmb
_mynum_flavors
_n6expire
_name_cache_lock
_name_cache_lock_shared
_name_cache_unlock
_name_registry
_namecache_lck_attr
_namecache_lck_grp
_namecache_lck_grp_attr
_namecache_rw_lock
_namei
_nameidone
_nanoseconds_to_absolutetime
_nanotime
_nanotime_to_absolutetime
_nanouptime
_nbdwrite
_nblkdev
_nbp_add_multicast
_nbp_delete_entry
_nbp_fillin_nve
_nbp_find_nve
_nbp_input
_nbp_mh_reg
_nbp_new_nve_entry
_nbp_shutdown
_nbp_strhash
_nbuf
_nbuf_hashelements
_ncallout
_nchash
_nchashmask
_nchashtbl
_nchead
_nchinit
_nchrdev
_ncl
_nconsops
_ncs_negtotal
_nd6_cache_lladdr
_nd6_dad_duplicated
_nd6_dad_start
_nd6_dad_stop
_nd6_dad_stoptimer
_nd6_debug
_nd6_defifindex
_nd6_delay
_nd6_free
_nd6_gctimer
_nd6_ifattach
_nd6_ifptomac
_nd6_init
_nd6_ioctl
_nd6_is_addr_neighbor
_nd6_lookup
_nd6_lookup_ipv6
_nd6_maxndopt
_nd6_maxnudhint
_nd6_mmaxtries
_nd6_mutex
_nd6_na_input
_nd6_na_output
_nd6_need_cache
_nd6_ns_input
_nd6_ns_output
_nd6_nud_hint
_nd6_option
_nd6_option_init
_nd6_options
_nd6_output
_nd6_prefix_lookup
_nd6_prefix_offlink
_nd6_prefix_onlink
_nd6_prelist_add
_nd6_prune
_nd6_purge
_nd6_ra_input
_nd6_recalc_reachtm_interval
_nd6_rs_input
_nd6_rtrequest
_nd6_setdefaultiface
_nd6_setmtu
_nd6_storelladdr
_nd6_timer
_nd6_umaxtries
_nd6_useloopback
_nd_defrouter
_nd_ifinfo
_nd_ifinfo_indexlim
_nd_prefix
_ndflush
_ndqb
_ndrv_recvspace
_ndrv_sendspace
_ndrv_usrreqs
_ndrvdomain
_ndrvl
_ndrvsw
_need_fsevent
_neghead
_nestedpanic
_net_add_domain
_net_add_proto
_net_del_domain
_net_del_proto
_net_init_add
_net_sysctl
_netaddr_match
_netboot_iaddr
_netboot_mountroot
_netboot_root
_netboot_rootpath
_netboot_setup
_new_addr_hash
_new_obj_hash
_new_sysctl
_new_system_shared_regions
_newsysctl_list
_nextc
_nextgennumber
_nextsect
_nextseg
_nextsegfromheader
_nfiles
_nfs_adv
_nfs_async
_nfs_asyncio
_nfs_attrcachetimeout
_nfs_bind_resv_lck_attr
_nfs_bind_resv_lck_grp
_nfs_bind_resv_lck_grp_attr
_nfs_bind_resv_mutex
_nfs_bind_resv_thread_wake
_nfs_bioread
_nfs_boot_getfh
_nfs_boot_init
_nfs_buf_acquire
_nfs_buf_check_write_verifier
_nfs_buf_drop
_nfs_buf_freeup
_nfs_buf_get
_nfs_buf_incore
_nfs_buf_iodone
_nfs_buf_iowait
_nfs_buf_is_incore
_nfs_buf_itercomplete
_nfs_buf_iterprepare
_nfs_buf_lck_attr
_nfs_buf_lck_grp
_nfs_buf_lck_grp_attr
_nfs_buf_mutex
_nfs_buf_page_inval
_nfs_buf_refget
_nfs_buf_refrele
_nfs_buf_release
_nfs_buf_remfree
_nfs_buf_upl_check
_nfs_buf_upl_setup
_nfs_buf_write
_nfs_buf_write_delayed
_nfs_cltpsock
_nfs_commit
_nfs_connect
_nfs_defect
_nfs_disconnect
_nfs_doio
_nfs_dolock
_nfs_down
_nfs_export_group_attr
_nfs_export_lock_attr
_nfs_export_rwlock
_nfs_export_rwlock_group
_nfs_exports
_nfs_false
_nfs_flush
_nfs_flushcommits
_nfs_fsinfo
_nfs_getattr
_nfs_getattr_no_vnode
_nfs_getattrcache
_nfs_getauth
_nfs_getcookie
_nfs_getnickauth
_nfs_getreq
_nfs_hash
_nfs_inactive
_nfs_init
_nfs_invaldir
_nfs_iod_lck_attr
_nfs_iod_lck_grp
_nfs_iod_lck_grp_attr
_nfs_iod_mutex
_nfs_ioddelwri
_nfs_iodmount
_nfs_iodwant
_nfs_ispublicfh
_nfs_loadattrcache
_nfs_lock_pid_hash
_nfs_lock_pid_hash_tbl
_nfs_lock_pid_lock
_nfs_lock_pid_lru
_nfs_lockinit
_nfs_lockxid
_nfs_mbuf_init
_nfs_mount_type
_nfs_mountroot
_nfs_namei
_nfs_nbdwrite
_nfs_nbinit
_nfs_nget
_nfs_nhinit
_nfs_node_hash_lck_attr
_nfs_node_hash_lck_grp
_nfs_node_hash_lck_grp_attr
_nfs_node_hash_mutex
_nfs_numasync
_nfs_numnfsd
_nfs_parsefattr
_nfs_pathconf_cache
_nfs_pathconfrpc
_nfs_pendlockq
_nfs_prog
_nfs_readdirplusrpc
_nfs_readdirrpc
_nfs_readlinkrpc
_nfs_readrpc
_nfs_reclaim
_nfs_removeit
_nfs_rephead
_nfs_reply
_nfs_reqq
_nfs_request
_nfs_resv_mounts
_nfs_savenickauth
_nfs_send
_nfs_sigintr
_nfs_slp_group_attr
_nfs_slp_lock_attr
_nfs_slp_mutex_group
_nfs_slp_rwlock_group
_nfs_sndlock
_nfs_sndunlock
_nfs_ticks
_nfs_timer
_nfs_timer_funnel
_nfs_true
_nfs_udpsock
_nfs_up
_nfs_vfsops
_nfs_vinvalbuf
_nfs_write
_nfs_writerpc
_nfs_xdrneg1
_nfs_xidwrap
_nfsbufcnt
_nfsbufdelwri
_nfsbufdelwricnt
_nfsbuffree
_nfsbuffreecnt
_nfsbuffreemeta
_nfsbuffreemetacnt
_nfsbuffreeuptimestamp
_nfsbufhash
_nfsbufhashtbl
_nfsbufmax
_nfsbufmetacnt
_nfsbufmetamax
_nfsbufmin
_nfsclnt
_nfsd_head
_nfsd_head_flag
_nfsd_lck_attr
_nfsd_lck_grp
_nfsd_lck_grp_attr
_nfsd_mutex
_nfsd_waiting
_nfsexphash
_nfsexphashtbl
_nfslockdans
_nfslockdfd
_nfslockdfifolock
_nfslockdstarttimeout
_nfslockdvnode
_nfslockdwait
_nfslockdwaiting
_nfsm_adj
_nfsm_disct
_nfsm_mbuftouio
_nfsm_path_mbuftond
_nfsm_reqh
_nfsm_rpchead
_nfsm_srvfattr
_nfsm_srvpostopattr
_nfsm_srvwcc
_nfsm_strtmbuf
_nfsm_uiotombuf
_nfsneedbuffer
_nfsnodehash
_nfsnodehashtbl
_nfsrtt
_nfsrtton
_nfsrv3_access
_nfsrv3_procs
_nfsrv_cleancache
_nfsrv_commit
_nfsrv_create
_nfsrv_credcheck
_nfsrv_dorec
_nfsrv_errmap
_nfsrv_export
_nfsrv_fhmatch
_nfsrv_fhtovp
_nfsrv_fsinfo
_nfsrv_getattr
_nfsrv_getcache
_nfsrv_init
_nfsrv_initcache
_nfsrv_link
_nfsrv_lookup
_nfsrv_mkdir
_nfsrv_mknod
_nfsrv_noop
_nfsrv_null
_nfsrv_pathconf
_nfsrv_rcv
_nfsrv_rcv_locked
_nfsrv_read
_nfsrv_readdir
_nfsrv_readdirplus
_nfsrv_readlink
_nfsrv_remove
_nfsrv_rename
_nfsrv_reqcache_lck_attr
_nfsrv_reqcache_lck_grp
_nfsrv_reqcache_lck_grp_attr
_nfsrv_reqcache_mutex
_nfsrv_rmdir
_nfsrv_setattr
_nfsrv_setcred
_nfsrv_slpderef
_nfsrv_slpfree
_nfsrv_statfs
_nfsrv_symlink
_nfsrv_updatecache
_nfsrv_vptofh
_nfsrv_wakenfsd
_nfsrv_write
_nfsrv_writegather
_nfsrvhash
_nfsrvhashtbl
_nfsrvlruhead
_nfsrvw_procrastinate
_nfsrvw_procrastinate_v3
_nfsrvw_sort
_nfsstats
_nfssvc
_nfssvc_deadsockhead
_nfssvc_sockhead
_nfsv2_procid
_nfsv2_type
_nfsv2_vnodeop_opv_desc
_nfsv2_vnodeop_p
_nfsv3_procid
_nfsv3_type
_ngif
_niobuf
_nkdbufs
_nlinesw
_nmbclusters
_no_dispatch_count
_no_of_nets_tried
_no_of_nodes_tried
_nobdev
_nocdev
_nop_access
_nop_advlock
_nop_allocate
_nop_blktooff
_nop_blockmap
_nop_bwrite
_nop_close
_nop_copyfile
_nop_create
_nop_exchange
_nop_fsync
_nop_getattr
_nop_getattrlist
_nop_inactive
_nop_ioctl
_nop_link
_nop_mkdir
_nop_mknod
_nop_mmap
_nop_offtoblk
_nop_open
_nop_pagein
_nop_pageout
_nop_pathconf
_nop_read
_nop_readdir
_nop_readdirattr
_nop_readlink
_nop_reclaim
_nop_remove
_nop_rename
_nop_revoke
_nop_rmdir
_nop_searchfs
_nop_select
_nop_setattr
_nop_setattrlist
_nop_strategy
_nop_symlink
_nop_whiteout
_nop_write
_noresume_on_disconnect
_norma_mk
_nosys
_not_in_kdp
_npcbufs
_nport
_nprocs
_nr_hashmask
_nr_hashtbl
_nr_lck_attr
_nr_lck_grp
_nr_lck_grp_attr
_nr_mutex
_nrdeletes
_nrinserts
_nselcoll
_nswap
_nswapmap
_nswdev
_nsys_au_event
_nsysent
_nulldev
_nullop
_nullsys
_num_recycledvnodes
_num_reusedvnodes
_num_zones
_numcache
_numdquot
_numnfsrvcache
_numused_vfsslots
_numvnodes
_nv3tov_type
_nx_enabled
_oaccept
_obreak
_ogetdtablesize
_ogetpeername
_ogetsockname
_open
_open_extended
_orecv
_orecvfrom
_orecvmsg
_osbuilder
_osend
_osendmsg
_osmmap
_osrelease
_ostype
_ot_ddp_check_socket
_ovadvise
_ovbcopy
_pPcfg
_packAsc
_packattrblk
_packcommonattr
_packdirattr
_packfileattr
_page_mask
_page_shift
_page_size
_paging_segment_count
_paging_segment_max
_paging_segments
_paging_segments_lock
_panic
_panicDebugging
_panicDialogDesired
_panic_caller
_panic_dialog_get_image
_panic_dialog_set_image
_panic_dialog_test
_panic_init
_panic_is_inited
_panic_lock
_panic_ui_initialize
_paniccpu
_panicstr
_panicwait
_parse_bsd_args
_pat_output
_patch_table
_patch_up_table
_pathconf
_pbtcnt
_pbtcpu
_pbtlock
_pc_buffer
_pc_buflast
_pc_bufptr
_pc_bufsize
_pc_buftomem
_pc_sample_pid
_pc_trace_buf
_pc_trace_cnt
_pc_trace_frameworks
_pcb_synch
_pcsample_beg
_pcsample_comm
_pcsample_enable
_pcsample_end
_pcsample_flags
_pcsamples_bootstrap
_pcsamples_clear
_pcsamples_control
_pcsamples_ops
_pcsamples_read
_pcsamples_reinit
_pe_do_clock_test
_pe_identify_machine
_pe_init_debug
_pe_run_clock_test
_perfASTHook
_perfCpuSigHook
_perfIntHook
_perfTrapHook
_perfmon_acquire_facility
_perfmon_clear_counters
_perfmon_control
_perfmon_disable
_perfmon_enable
_perfmon_handle_pmi
_perfmon_init
_perfmon_read_counters
_perfmon_release_facility
_perfmon_set_event
_perfmon_set_event_func
_perfmon_set_tbsel
_perfmon_set_threshold
_perfmon_start_counters
_perfmon_stop_counters
_perfmon_write_counters
_pfctlinput
_pfctlinput2
_pffasttimo
_pffinddomain
_pffindproto
_pffindproto_locked
_pffindtype
_pfind
_pfkeystat
_pfslowtimo
_pfxlist_onlink_check
_pgdelete
_pgfind
_pgrp0
_pgrphash
_pgrphashtbl
_pgsignal
_phys_copy
_phys_table
_physical_transfer_cluster_count
_physio
_pid_atalkinfo
_pid_for_task
_pid_kqueueinfo
_pid_pipeinfo
_pid_pseminfo
_pid_pshminfo
_pid_socketinfo
_pid_vnodeinfo
_pid_vnodeinfopath
_pidhash
_pidhashtbl
_pim6_input
_pipe
_pipe_stat
_pipeinit
_pipeops
_pktsDropped
_pktsHome
_pktsIn
_pktsOut
_pmapTrans
_pmap_activate
_pmap_add_physical_memory
_pmap_attribute
_pmap_attribute_cache_sync
_pmap_boot_map
_pmap_bootstrap
_pmap_cache_attributes
_pmap_change_wiring
_pmap_clear_modify
_pmap_clear_reference
_pmap_clear_refmod
_pmap_collect
_pmap_copy_page
_pmap_copy_part_page
_pmap_create
_pmap_deactivate
_pmap_destroy
_pmap_disable_NX
_pmap_disconnect
_pmap_eligible_for_execute
_pmap_enter
_pmap_extract
_pmap_find_phys
_pmap_find_physentry
_pmap_free_pages
_pmap_get_refmod
_pmap_init
_pmap_init_sharedpage
_pmap_initialized
_pmap_is_modified
_pmap_is_referenced
_pmap_map
_pmap_map_block
_pmap_map_block_rc
_pmap_map_sharedpage
_pmap_mem_regions
_pmap_mem_regions_count
_pmap_modify_pages
_pmap_nest
_pmap_next_page
_pmap_page_protect
_pmap_pageable
_pmap_protect
_pmap_reference
_pmap_remove
_pmap_remove_some_phys
_pmap_startup
_pmap_steal_memory
_pmap_switch
_pmap_sync_page_attributes_phys
_pmap_sync_page_data_phys
_pmap_unmap_sharedpage
_pmap_unnest
_pmap_verify_free
_pmap_virtual_space
_pmap_zero_page
_pmap_zero_part_page
_pmap_zone
_pmsBroadcastWait
_pmsBuild
_pmsBuildLock
_pmsCPUConf
_pmsCPUGreenFlag
_pmsCPUInit
_pmsCPUMachineInit
_pmsCPUPackageQuery
_pmsCPUQuery
_pmsCPURun
_pmsCPUSet
_pmsCPUYellowFlag
_pmsCntrl
_pmsControl
_pmsCtlp
_pmsCtls
_pmsDefault
_pmsDown
_pmsDummy
_pmsExperimental
_pmsFuncTab
_pmsInit
_pmsInstalled
_pmsPark
_pmsPlatformData
_pmsQueryFunc
_pmsRun
_pmsRunLocal
_pmsSetStep
_pmsStart
_pmsStatsd
_pmsStep
_pmsStepIdleSneaks
_pmsStepIdleTries
_pmtu_expire
_pmtu_probe
_poll
_port_name_to_clock
_port_name_to_semaphore
_port_name_to_task
_port_name_to_thread
_posix_sem_max
_postevent
_postpipeevent
_postsig
_powermac_scc_get_datum
_powermac_scc_set_datum
_ppcNull
_ppcNullinst
_ppc_checkthreadstate
_ppc_init
_ppc_init_cpu
_ppc_max_adrsp
_ppc_max_pmaps
_ppc_prot
_ppc_usimple_lock
_ppc_usimple_lock_init
_ppc_usimple_lock_try
_ppc_usimple_unlock_rwcmb
_ppc_usimple_unlock_rwmb
_ppc_vm_init
_ppcscret
_pread
_preemption_enabled
_prefix6_mutex
_prelist_remove
_prelist_update
_prep_ZIP_reply_packet
_prepare_profile_database
_prf
_print_backtrace
_print_saved_state
_print_vmpage_stat
_printf
_printf_init
_printf_lock
_priority_IO_timestamp_for_root
_prngAllowReseed
_prngDestroy
_prngForceReseed
_prngInitialize
_prngInput
_prngOutput
_prngProcessSeedBuffer
_prngStretch
_probe_cb
_proc0
_proc_dropinternal
_proc_dropref
_proc_exit
_proc_exiting
_proc_fdlock
_proc_fdunlock
_proc_find
_proc_findref
_proc_forcequota
_proc_info
_proc_info_internal
_proc_is64bit
_proc_is_classic
_proc_isinferior
_proc_issignal
_proc_kernmsgbuf
_proc_lck_attr
_proc_lck_grp
_proc_lck_grp_attr
_proc_listpids
_proc_lock
_proc_name
_proc_noremotehang
_proc_pendingsignals
_proc_pid
_proc_pidbsdinfo
_proc_pidfdinfo
_proc_pidfdlist
_proc_pidinfo
_proc_pidlistthreads
_proc_pidregioninfo
_proc_pidregionpathinfo
_proc_pidtaskinfo
_proc_pidthreadinfo
_proc_pidvnodepathinfo
_proc_ppid
_proc_prepareexit
_proc_refinternal
_proc_rele
_proc_reparent
_proc_self
_proc_selfname
_proc_selfpid
_proc_selfppid
_proc_signal
_proc_suser
_proc_tbe
_proc_ucred
_proc_unlock
_procdup
_processor_assign
_processor_bootstrap
_processor_control
_processor_count
_processor_data_init
_processor_doshutdown
_processor_exit
_processor_get_assignment
_processor_info
_processor_info_count
_processor_init
_processor_list
_processor_list_lock
_processor_offline
_processor_server
_processor_server_routine
_processor_set_base
_processor_set_create
_processor_set_default
_processor_set_destroy
_processor_set_info
_processor_set_limit
_processor_set_max_priority
_processor_set_policy_control
_processor_set_policy_disable
_processor_set_policy_enable
_processor_set_server
_processor_set_server_routine
_processor_set_stack_usage
_processor_set_statistics
_processor_set_subsystem
_processor_set_tasks
_processor_set_things
_processor_set_threads
_processor_shutdown
_processor_start
_processor_start_thread
_processor_subsystem
_processor_up
_procfdtbl_clearfd
_procfdtbl_markclosefd
_procfdtbl_releasefd
_procfdtbl_reservefd
_procfdtbl_waitfd
_procinit
_prof_queue
_profil
_profile_kernel_services
_proto_inject
_proto_input
_proto_register_plumber
_proto_unregister_plumber
_prtactive
_pru_abort_notsupp
_pru_accept_notsupp
_pru_attach_notsupp
_pru_bind_notsupp
_pru_connect2_notsupp
_pru_connect_notsupp
_pru_control_notsupp
_pru_detach_notsupp
_pru_disconnect_notsupp
_pru_listen_notsupp
_pru_peeraddr_notsupp
_pru_rcvd_notsupp
_pru_rcvoob_notsupp
_pru_send_notsupp
_pru_sense_null
_pru_shutdown_notsupp
_pru_sockaddr_notsupp
_pru_sopoll_notsupp
_pru_soreceive
_pru_soreceive_notsupp
_pru_sosend
_pru_sosend_notsupp
_ps_allocate_cluster
_ps_clmap
_ps_clunmap
_ps_dealloc_vsmap
_ps_deallocate_cluster
_ps_delete
_ps_enter
_ps_map_extend
_ps_read_device
_ps_read_file
_ps_select_array
_ps_select_segment
_ps_vs_write_complete
_ps_vstruct_allocated_pages
_ps_vstruct_allocated_size
_ps_vstruct_create
_ps_vstruct_dealloc
_ps_vstruct_transfer_from_segment
_ps_write_device
_ps_write_file
_psem_cache_init
_psemhash
_psemhashtbl
_psemnument
_psemops
_psemstats
_pset_add_processor
_pset_add_task
_pset_add_thread
_pset_deallocate
_pset_init
_pset_reference
_pset_remove_processor
_pset_remove_task
_pset_remove_thread
_pseudo_inits
_pshm_access
_pshm_cache_init
_pshm_mmap
_pshm_stat
_pshm_truncate
_pshmhash
_pshmhashtbl
_pshmnument
_pshmops
_pshmstats
_psignal
_psignal_lock
_psignal_sigprof
_psignal_uthread
_psignal_vfork
_psignal_vtalarm
_psignal_xcpu
_pstats0
_pt_setrunnable
_pthread_getspecific_sprg3_32
_pthread_getspecific_sprg3_64
_pthread_getspecific_uftrap
_pthread_self_sprg3
_pthread_self_uftrap
_pthread_sigmask
_ptrace
_pty_init
_putc
_pvs_cluster_read
_pvs_object_data_provided
_pwrite
_qAddToEnd
_q_to_b
_qf_get
_qf_lck_attr
_qf_lck_grp
_qf_lck_grp_attr
_qf_put
_qfind_m
_qsync
_quota_list_lck_attr
_quota_list_lck_grp
_quota_list_lck_grp_attr
_quota_list_mtx_lock
_quotactl
_quotaoff
_quotaon
_quotastat
_random
_random_block
_random_close
_random_init
_random_ioctl
_random_open
_random_read
_random_write
_raw_attach
_raw_ctlinput
_raw_detach
_raw_disconnect
_raw_init
_raw_input
_raw_mtx
_raw_mtx_attr
_raw_mtx_grp
_raw_mtx_grp_attr
_raw_usrreqs
_rawcb_list
_rawread
_rawwrite
_rc4_crypt
_rc4_init
_rd_uio
_read
_read_random
_readlink
_readv
_real_ncpus
_realhost
_realitexpire
_reattach_wait
_reboot
_reboot_how
_receive_packet
_record_startup_extensions_function
_recvfrom
_recvmsg
_ref_pset_port_locked
_refresh_screen
_regDefaultZone
_registerPrioritySleepWakeInterest
_registerSleepWakeInterest
_releaseData
_release_pathbuff
_relookup
_rem3_remangle_name
_remove_all_shared_regions
_remove_default_shared_region
_remove_startup_extension_function
_removexattr
_rename
_resetPOR
_reset_shared_file
_resetpriority
_resize_namecache
_retFromVM
_retfsectPatch_eieio
_retfsectPatch_isync
_retrieve_task_self_fast
_retrieve_thread_self_fast
_return_on_panic
_reverse_lookup
_revoke
_rip6_ctlinput
_rip6_ctloutput
_rip6_input
_rip6_output
_rip6_recvspace
_rip6_sendspace
_rip6_usrreqs
_rip6stat
_rip_ctlinput
_rip_ctloutput
_rip_init
_rip_input
_rip_output
_rip_recvspace
_rip_sendspace
_rip_unlock
_rip_usrreqs
_ripcb
_ripcbinfo
_rl_add
_rl_init
_rl_remove
_rl_scan
_rmdir
_rn_addmask
_rn_addroute
_rn_delete
_rn_getlock
_rn_init
_rn_inithead
_rn_lock
_rn_lookup
_rn_match
_rn_mutex
_rn_refines
_rn_unlock
_rootDomainRestart
_rootDomainShutdown
_root_paged_ledger
_root_wired_ledger
_rootdev
_rootdevice
_rootfs
_rootvnode
_rootvp
_route6_input
_route_cb
_route_domain_mtx
_route_init
_routedomain
_routerStart
_router_added
_router_killed
_routershutdown
_routing_needed
_rpc_auth_kerb
_rpc_auth_unix
_rpc_autherr
_rpc_call
_rpc_mismatch
_rpc_msgaccepted
_rpc_msgdenied
_rpc_reply
_rpc_vers
_rr_prefix
_rsvp_input
_rsvp_on
_rt6_flush
_rt_bdelete
_rt_binsert
_rt_blookup
_rt_delete
_rt_getNextRoute
_rt_ifmsg
_rt_insert
_rt_missmsg
_rt_mtx
_rt_mtx_attr
_rt_mtx_grp
_rt_mtx_grp_attr
_rt_newaddrmsg
_rt_newmaddrmsg
_rt_setgate
_rt_show
_rt_sortedshow
_rt_table_init
_rt_tables
_rtalloc
_rtalloc1
_rtalloc1_locked
_rtalloc_ign
_rtalloc_ign_locked
_rtclock_config
_rtclock_getattr
_rtclock_gettime
_rtclock_init
_rtclock_tick_interval
_rtclock_timer_expire
_rtfree
_rtfree_locked
_rtinit
_rtinit_locked
_rtioctl
_rtmp_dropper
_rtmp_init
_rtmp_input
_rtmp_prep_new_packet
_rtmp_purge
_rtmp_r_find_bridge
_rtmp_router_input
_rtmp_router_start
_rtmp_send_port
_rtmp_send_port_locked
_rtmp_shutdown
_rtmp_timeout
_rtredirect
_rtref
_rtrequest
_rtrequest_locked
_rtsetifa
_rtunref
_ruadd
_run_queue_remove
_rwldPatch_eieio
_rwldPatch_isync
_rwlePatch_isync
_rwlesPatch_eieio
_rwlesPatch_isync
_rwlsPatch_isync
_rwlsePatch_isync
_rwtlePatch_isync
_rwtlsPatch_isync
_sa6_any
_sack_hole_zone
_sadb_mutex
_sadb_mutex_attr
_sadb_mutex_grp
_sadb_mutex_grp_attr
_safe_gets
_safedounmount
_sane_size
_save_adjust
_save_alloc
_save_cpv
_save_fake_zone_info
_save_get
_save_get_init
_save_get_phys_32
_save_get_phys_64
_save_queue
_save_recover
_save_release
_save_ret
_save_ret_phys
_save_ret_wMSR
_save_snapshot
_save_snapshot_restore
_save_trim_free
_saveanchor
_savearea_init
_sb_lock
_sb_max
_sb_notify
_sballoc
_sbappend
_sbappendaddr
_sbappendcontrol
_sbappendrecord
_sbcreatecontrol
_sbdrop
_sbdroprecord
_sbflush
_sbfree
_sbinsertoob
_sblock
_sbrelease
_sbreserve
_sbrk
_sbspace
_sbtoxsockbuf
_sbunlock
_sbwait
_scanc
_scb_free_list
_scb_resource_m
_scb_used_list
_scc
_scc_funnel_initted
_scc_getc
_scc_param
_scc_parm_done
_scc_probe
_scc_putc
_scc_softc
_scc_std
_scc_stomp
_scc_tty
_scc_uses_modem_control
_sched_cswtime
_sched_init
_sched_load_shifts
_sched_poll_yield_shift
_sched_pri_shift
_sched_safe_duration
_sched_startup
_sched_tick
_sched_tick_interval
_sched_tick_thread
_sched_timebase_init
_sconowner
_scope6_addr2default
_scope6_get
_scope6_get_default
_scope6_ids
_scope6_ifattach
_scope6_set
_scope6_setdefault
_searchfs
_sectDATAB
_sectHIBB
_sectKLDB
_sectLINKB
_sectPRELINKB
_sectSizeDATA
_sectSizeHIB
_sectSizeKLD
_sectSizeLINK
_sectSizePRELINK
_sectSizeTEXT
_sectTEXTB
_securelevel
_selcontinue
_select
_selprocess
_selrecord
_selthreadclear
_seltrue
_selwait
_selwakeup
_sem_close
_sem_destroy
_sem_getvalue
_sem_init
_sem_open
_sem_pool
_sem_post
_sem_trywait
_sem_unlink
_sem_wait
_sema
_semaphore_convert_wait_result
_semaphore_create
_semaphore_dereference
_semaphore_destroy
_semaphore_init
_semaphore_max
_semaphore_reference
_semaphore_server
_semaphore_server_routine
_semaphore_signal
_semaphore_signal_all
_semaphore_signal_all_trap
_semaphore_signal_internal
_semaphore_signal_thread
_semaphore_signal_thread_trap
_semaphore_signal_trap
_semaphore_subsystem
_semaphore_timedwait
_semaphore_timedwait_signal
_semaphore_timedwait_signal_trap
_semaphore_timedwait_signal_trap_internal
_semaphore_timedwait_trap
_semaphore_timedwait_trap_internal
_semaphore_wait
_semaphore_wait_continue
_semaphore_wait_internal
_semaphore_wait_signal
_semaphore_wait_signal_trap
_semaphore_wait_signal_trap_internal
_semaphore_wait_trap
_semaphore_wait_trap_internal
_semaphore_zone
_semctl
_semctl_to_event
_semexit
_semget
_seminfo
_semop
_semsys
_semu
_sendmsg
_sendsig
_sendto
_serial_initted
_serial_keyboard_init
_serial_keyboard_poll
_serial_keyboard_start
_serial_putc
_serialmode
_session0
_sessrele
_setLocalZones
_setPmon
_setPop
_set_archhandler
_set_be_bit
_set_bsdtask_info
_set_cast128_subkey
_set_dp_control_port
_set_fsblocksize
_set_priority
_set_procsigmask
_set_sched_pri
_set_security_token
_setattrlist
_setaudit
_setaudit_addr
_setauid
_setbit
_setegid
_seteuid
_setgid
_setgroups
_sethzonehash
_setitimer
_setlogin
_setpgid
_setpriority
_setprivexec
_setquota
_setrlimit
_setsgroups
_setsid
_setsigvec
_setsockopt
_settid
_settid_with_pid
_settimeofday
_setuid
_setup_kmem
_setuse
_setwgroups
_setxattr
_sflt_attach
_sflt_detach
_sflt_register
_sflt_unregister
_sfma_handle
_sha1_init
_sha1_loop
_sha1_pad
_sha1_result
_shadow_BAT
_shadow_map_create
_shadow_map_free
_shadow_map_is_written
_shadow_map_read
_shadow_map_shadow_size
_shadow_map_write
_shandler
_sharedPage
_sharedPmap
_shared_com_boot_time_init
_shared_file_available_hash_ele
_shared_file_boot_time_init
_shared_file_create_system_region
_shared_file_mapping_array
_shared_region_cleanup
_shared_region_dump_conflict_info
_shared_region_dump_file_entry
_shared_region_dump_mappings
_shared_region_make_private_np
_shared_region_map_file_np
_shared_region_mapping_create
_shared_region_mapping_dealloc
_shared_region_mapping_info
_shared_region_mapping_ref
_shared_region_object_chain_attach
_shared_region_object_chain_detached
_shared_region_trace_level
_shm_open
_shm_unlink
_shmat
_shmctl
_shmdt
_shmexit
_shmfork
_shmget
_shminfo
_shmsegs
_shmsys
_shutdown
_sig_filtops
_sig_lock_to_exit
_sig_try_locked
_sigaction
_sigacts0
_sigaltstack
_sigexit_locked
_siginit
_signal_lock
_signal_setast
_signal_unlock
_sigpending
_sigprocmask
_sigprop
_sigreturn
_sigsuspend
_sigwait
_sip_input
_skpc
_slave_machine_init
_slave_main
_slckPatch_isync
_sleep
_slot_subtype
_slot_threadtype
_slot_type
_snmpFlags
_snmpStats
_snprintf
_so_cache_hw
_so_cache_init_done
_so_cache_max_freed
_so_cache_mtx
_so_cache_time
_so_cache_timeouts
_so_cache_timer
_so_cache_zone
_so_cache_zone_element_size
_so_gencnt
_soabort
_soaccept
_soacceptlock
_soalloc
_sobind
_socantrcvmore
_socantsendmore
_sock_accept
_sock_bind
_sock_close
_sock_connect
_sock_connectwait
_sock_getpeername
_sock_getsockname
_sock_getsockopt
_sock_gettype
_sock_inject_data_in
_sock_inject_data_out
_sock_ioctl
_sock_isconnected
_sock_isnonblocking
_sock_listen
_sock_nointerrupt
_sock_receive
_sock_receivembuf
_sock_release
_sock_retain
_sock_send
_sock_send_internal
_sock_sendmbuf
_sock_setpriv
_sock_setsockopt
_sock_shutdown
_sock_socket
_sockargs
_socket
_socket_cache_head
_socket_cache_tail
_socket_debug
_socket_lock
_socket_unlock
_socket_zone
_socketinit
_socketops
_socketpair
_sockopt_copyin
_sockopt_copyout
_sockopt_direction
_sockopt_level
_sockopt_name
_sockopt_valsize
_soclose
_soclose_locked
_soconnect
_soconnect2
_soconnectlock
_socreate
_sodealloc
_sodereference
_sodisconnect
_sodisconnectlocked
_sodropablereq
_sofree
_sofreelastref
_sogetopt
_sohasoutofband
_soisconnected
_soisconnecting
_soisdisconnected
_soisdisconnecting
_solisten
_sonewconn
_soo_close
_soo_drain
_soo_ioctl
_soo_kqfilter
_soo_read
_soo_select
_soo_stat
_soo_write
_soopt_getm
_soopt_mcopyin
_soopt_mcopyout
_sooptcopyin
_sooptcopyout
_sopoll
_soreadable
_soreceive
_soreference
_soreserve
_sorflush
_sorwakeup
_sosend
_sosendallatonce
_sosetopt
_soshutdown
_sotoxsocket
_sowakeup
_sowriteable
_sowwakeup
_space_deallocate
_spec_badop
_spec_blktooff
_spec_blockmap
_spec_close
_spec_ebadf
_spec_fsync
_spec_fsync_internal
_spec_ioctl
_spec_lookup
_spec_nfsv2nodeop_opv_desc
_spec_nfsv2nodeop_p
_spec_offtoblk
_spec_open
_spec_pathconf
_spec_read
_spec_select
_spec_strategy
_spec_vnodeop_entries
_spec_vnodeop_opv_desc
_spec_vnodeop_p
_spec_write
_spechash_mtx_lock
_spechash_slock
_special_handler
_special_handler_continue
_speclisth
_spinlock_32_lock_mp
_spinlock_32_lock_up
_spinlock_32_try_mp
_spinlock_32_try_up
_spinlock_32_unlock_mp
_spinlock_32_unlock_up
_spinlock_64_lock_mp
_spinlock_64_lock_up
_spinlock_64_try_mp
_spinlock_64_try_up
_spinlock_64_unlock_mp
_spinlock_64_unlock_up
_spinlock_relinquish
_spl0
_splbio
_splclock
_splhigh
_splimp
_split_funnel_off
_spllo
_spln
_splnet
_sploff
_splon
_splpower
_splsched
_splsoftclock
_spltty
_splvm
_splx
_sprintf
_sprintf_lock
_spsLock
_spsLockInit
_srv
_ss_fltsz
_ss_fltsz_local
_sscanf
_sstk
_stFloat
_stSpecrs
_stVectors
_stack_alloc
_stack_alloc_try
_stack_collect
_stack_fake_zone_info
_stack_free
_stack_free_stack
_stack_init
_stack_privilege
_stack_snapshot
_stack_snapshot2
_stackshot_snapbuf
_start_def_pager
_startprofclock
_startup_miss
_stat
_stat_extended
_statfs
_static_memory_end
_statv
_std_quantum
_std_quantum_us
_stf_ioctl
_stf_pre_output
_stf_reg_if_mods
_stfattach
_stlckPatch_isync
_stop
_stopprofclock
_strcasecmp
_strcat
_strchr
_strcmp
_strcpy
_strdup
_strlen
_strncasecmp
_strncat
_strncmp
_strncpy
_strnlen
_strprefix
_strtol
_strtoq
_strtoul
_strtouq
_subyte
_suibyte
_suiword
_sulckPatch_eieio
_sulckPatch_isync
_sulong
_suser
_suspend_acctp
_suulong
_suword
_swap_crypt_ctx
_swap_crypt_ctx_initialize
_swap_crypt_ctx_initialized
_swap_crypt_key
_swap_crypt_null_iv
_swap_task_map
_swapmap
_swapon
_swdevt
_switchIntoVM
_switchSegs
_switch_debugger
_switch_in
_switch_to_old_console
_switch_to_serial_console
_switch_to_video_console
_swtch
_swtch_pri
_symlink
_sync
_sync_cache
_sync_cache64
_sync_cache_virtual
_sync_ppage
_sys_au_event
_sys_perf_notify
_syscall_error
_syscall_notify_interrupt
_syscall_trace
_syscall_trace_end
_syscallnames
_sysclk_ops
_sysctl__children
_sysctl__debug
_sysctl__debug_bpf_bufsize
_sysctl__debug_bpf_maxbufsize
_sysctl__debug_bpf_maxdevices
_sysctl__debug_children
_sysctl__debug_iokit
_sysctl__hw
_sysctl__hw_activecpu
_sysctl__hw_busfrequency
_sysctl__hw_busfrequency_compat
_sysctl__hw_busfrequency_max
_sysctl__hw_busfrequency_min
_sysctl__hw_byteorder
_sysctl__hw_cacheconfig
_sysctl__hw_cachelinesize
_sysctl__hw_cachelinesize_compat
_sysctl__hw_children
_sysctl__hw_cpufamily
_sysctl__hw_cpufrequency
_sysctl__hw_cpufrequency_compat
_sysctl__hw_cpufrequency_max
_sysctl__hw_cpufrequency_min
_sysctl__hw_cpusubtype
_sysctl__hw_cputype
_sysctl__hw_epoch
_sysctl__hw_l1dcachesize
_sysctl__hw_l1dcachesize_compat
_sysctl__hw_l1icachesize
_sysctl__hw_l1icachesize_compat
_sysctl__hw_l2cachesize
_sysctl__hw_l2cachesize_compat
_sysctl__hw_l2settings
_sysctl__hw_l3cachesize
_sysctl__hw_l3cachesize_compat
_sysctl__hw_l3settings
_sysctl__hw_logicalcpu
_sysctl__hw_logicalcpu_max
_sysctl__hw_machine
_sysctl__hw_memsize
_sysctl__hw_model
_sysctl__hw_ncpu
_sysctl__hw_optional
_sysctl__hw_optional_children
_sysctl__hw_optional_floatingpoint
_sysctl__hw_pagesize
_sysctl__hw_pagesize_compat
_sysctl__hw_physicalcpu
_sysctl__hw_physicalcpu_max
_sysctl__hw_physmem
_sysctl__hw_pms
_sysctl__hw_tbfrequency
_sysctl__hw_tbfrequency_compat
_sysctl__hw_usermem
_sysctl__hw_vectorunit
_sysctl__kern
_sysctl__kern_always_do_fullfsync
_sysctl__kern_children
_sysctl__kern_dummy
_sysctl__kern_exec
_sysctl__kern_exec_archhandler
_sysctl__kern_exec_archhandler_children
_sysctl__kern_exec_archhandler_powerpc
_sysctl__kern_exec_children
_sysctl__kern_flush_cache_on_write
_sysctl__kern_ipc
_sysctl__kern_ipc_children
_sysctl__kern_ipc_maxsockbuf
_sysctl__kern_ipc_maxsockets
_sysctl__kern_ipc_mbstat
_sysctl__kern_ipc_nmbclusters
_sysctl__kern_ipc_sockbuf_waste_factor
_sysctl__kern_ipc_somaxconn
_sysctl__kern_ipc_sorecvmincopy
_sysctl__kern_ipc_sosendminchain
_sysctl__kern_maxfilesperproc
_sysctl__kern_maxnbuf
_sysctl__kern_maxprocperuid
_sysctl__kern_nbuf
_sysctl__kern_posix
_sysctl__kern_posix_children
_sysctl__kern_posix_sem
_sysctl__kern_posix_sem_children
_sysctl__kern_posix_sem_max
_sysctl__kern_sugid_scripts
_sysctl__kern_sysv
_sysctl__kern_sysv_children
_sysctl__kern_sysv_ipcs
_sysctl__kern_sysv_ipcs_children
_sysctl__kern_sysv_ipcs_msg
_sysctl__kern_sysv_ipcs_sem
_sysctl__kern_sysv_ipcs_shm
_sysctl__kern_sysv_semmni
_sysctl__kern_sysv_semmns
_sysctl__kern_sysv_semmnu
_sysctl__kern_sysv_semmsl
_sysctl__kern_sysv_semume
_sysctl__kern_sysv_shmall
_sysctl__kern_sysv_shmmax
_sysctl__kern_sysv_shmmin
_sysctl__kern_sysv_shmmni
_sysctl__kern_sysv_shmseg
_sysctl__kern_tfp
_sysctl__kern_tfp_children
_sysctl__kern_tfp_policy
_sysctl__kern_tfp_read_group
_sysctl__kern_tfp_rw_group
_sysctl__machdep
_sysctl__machdep_children
_sysctl__net
_sysctl__net_appletalk
_sysctl__net_appletalk_children
_sysctl__net_appletalk_ddpstats
_sysctl__net_appletalk_debug
_sysctl__net_appletalk_routermix
_sysctl__net_children
_sysctl__net_inet
_sysctl__net_inet6
_sysctl__net_inet6_children
_sysctl__net_inet6_icmp6
_sysctl__net_inet6_icmp6_children
_sysctl__net_inet6_icmp6_errppslimit
_sysctl__net_inet6_icmp6_nd6_debug
_sysctl__net_inet6_icmp6_nd6_delay
_sysctl__net_inet6_icmp6_nd6_maxnudhint
_sysctl__net_inet6_icmp6_nd6_mmaxtries
_sysctl__net_inet6_icmp6_nd6_prune
_sysctl__net_inet6_icmp6_nd6_umaxtries
_sysctl__net_inet6_icmp6_nd6_useloopback
_sysctl__net_inet6_icmp6_nodeinfo
_sysctl__net_inet6_icmp6_rediraccept
_sysctl__net_inet6_icmp6_redirtimeout
_sysctl__net_inet6_icmp6_stats
_sysctl__net_inet6_ip6
_sysctl__net_inet6_ip6_accept_rtadv
_sysctl__net_inet6_ip6_auto_flowlabel
_sysctl__net_inet6_ip6_auto_linklocal
_sysctl__net_inet6_ip6_children
_sysctl__net_inet6_ip6_dad_count
_sysctl__net_inet6_ip6_defmcasthlim
_sysctl__net_inet6_ip6_forwarding
_sysctl__net_inet6_ip6_fw
_sysctl__net_inet6_ip6_fw_children
_sysctl__net_inet6_ip6_fw_debug
_sysctl__net_inet6_ip6_fw_enable
_sysctl__net_inet6_ip6_fw_verbose
_sysctl__net_inet6_ip6_fw_verbose_limit
_sysctl__net_inet6_ip6_gifhlim
_sysctl__net_inet6_ip6_hdrnestlimit
_sysctl__net_inet6_ip6_hlim
_sysctl__net_inet6_ip6_kame_version
_sysctl__net_inet6_ip6_keepfaith
_sysctl__net_inet6_ip6_log_interval
_sysctl__net_inet6_ip6_maxfragpackets
_sysctl__net_inet6_ip6_maxfrags
_sysctl__net_inet6_ip6_mrt6stat
_sysctl__net_inet6_ip6_redirect
_sysctl__net_inet6_ip6_rip6stats
_sysctl__net_inet6_ip6_rr_prune
_sysctl__net_inet6_ip6_rtexpire
_sysctl__net_inet6_ip6_rtmaxcache
_sysctl__net_inet6_ip6_rtminexpire
_sysctl__net_inet6_ip6_stats
_sysctl__net_inet6_ip6_temppltime
_sysctl__net_inet6_ip6_tempvltime
_sysctl__net_inet6_ip6_use_deprecated
_sysctl__net_inet6_ip6_use_tempaddr
_sysctl__net_inet6_ip6_v6only
_sysctl__net_inet6_ipsec6
_sysctl__net_inet6_ipsec6_ah_net_deflev
_sysctl__net_inet6_ipsec6_ah_trans_deflev
_sysctl__net_inet6_ipsec6_children
_sysctl__net_inet6_ipsec6_debug
_sysctl__net_inet6_ipsec6_def_policy
_sysctl__net_inet6_ipsec6_ecn
_sysctl__net_inet6_ipsec6_esp_net_deflev
_sysctl__net_inet6_ipsec6_esp_randpad
_sysctl__net_inet6_ipsec6_esp_trans_deflev
_sysctl__net_inet6_ipsec6_stats
_sysctl__net_inet6_tcp6
_sysctl__net_inet6_tcp6_children
_sysctl__net_inet6_udp6
_sysctl__net_inet6_udp6_children
_sysctl__net_inet_children
_sysctl__net_inet_div
_sysctl__net_inet_div_children
_sysctl__net_inet_icmp
_sysctl__net_inet_icmp_bmcastecho
_sysctl__net_inet_icmp_children
_sysctl__net_inet_icmp_drop_redirect
_sysctl__net_inet_icmp_icmplim
_sysctl__net_inet_icmp_log_redirect
_sysctl__net_inet_icmp_maskrepl
_sysctl__net_inet_icmp_stats
_sysctl__net_inet_icmp_timestamp
_sysctl__net_inet_igmp
_sysctl__net_inet_igmp_children
_sysctl__net_inet_igmp_stats
_sysctl__net_inet_ip
_sysctl__net_inet_ip_accept_sourceroute
_sysctl__net_inet_ip_check_interface
_sysctl__net_inet_ip_check_route_selfref
_sysctl__net_inet_ip_children
_sysctl__net_inet_ip_dummynet
_sysctl__net_inet_ip_dummynet_children
_sysctl__net_inet_ip_dummynet_curr_time
_sysctl__net_inet_ip_dummynet_debug
_sysctl__net_inet_ip_dummynet_expire
_sysctl__net_inet_ip_dummynet_extract_heap
_sysctl__net_inet_ip_dummynet_hash_size
_sysctl__net_inet_ip_dummynet_max_chain_len
_sysctl__net_inet_ip_dummynet_ready_heap
_sysctl__net_inet_ip_dummynet_red_avg_pkt_size
_sysctl__net_inet_ip_dummynet_red_lookup_depth
_sysctl__net_inet_ip_dummynet_red_max_pkt_size
_sysctl__net_inet_ip_dummynet_search_steps
_sysctl__net_inet_ip_dummynet_searches
_sysctl__net_inet_ip_fastforwarding
_sysctl__net_inet_ip_forwarding
_sysctl__net_inet_ip_fw
_sysctl__net_inet_ip_fw_autoinc_step
_sysctl__net_inet_ip_fw_children
_sysctl__net_inet_ip_fw_curr_dyn_buckets
_sysctl__net_inet_ip_fw_debug
_sysctl__net_inet_ip_fw_dyn_ack_lifetime
_sysctl__net_inet_ip_fw_dyn_buckets
_sysctl__net_inet_ip_fw_dyn_count
_sysctl__net_inet_ip_fw_dyn_fin_lifetime
_sysctl__net_inet_ip_fw_dyn_keepalive
_sysctl__net_inet_ip_fw_dyn_max
_sysctl__net_inet_ip_fw_dyn_rst_lifetime
_sysctl__net_inet_ip_fw_dyn_short_lifetime
_sysctl__net_inet_ip_fw_dyn_syn_lifetime
_sysctl__net_inet_ip_fw_dyn_udp_lifetime
_sysctl__net_inet_ip_fw_enable
_sysctl__net_inet_ip_fw_one_pass
_sysctl__net_inet_ip_fw_static_count
_sysctl__net_inet_ip_fw_verbose
_sysctl__net_inet_ip_fw_verbose_limit
_sysctl__net_inet_ip_gifttl
_sysctl__net_inet_ip_intr_queue_drops
_sysctl__net_inet_ip_intr_queue_maxlen
_sysctl__net_inet_ip_keepfaith
_sysctl__net_inet_ip_linklocal
_sysctl__net_inet_ip_linklocal_children
_sysctl__net_inet_ip_linklocal_in
_sysctl__net_inet_ip_linklocal_in_allowbadttl
_sysctl__net_inet_ip_linklocal_in_children
_sysctl__net_inet_ip_linklocal_stat
_sysctl__net_inet_ip_maxchainsent
_sysctl__net_inet_ip_maxfragpackets
_sysctl__net_inet_ip_maxfrags
_sysctl__net_inet_ip_maxfragsperpacket
_sysctl__net_inet_ip_portrange
_sysctl__net_inet_ip_portrange_children
_sysctl__net_inet_ip_portrange_first
_sysctl__net_inet_ip_portrange_hifirst
_sysctl__net_inet_ip_portrange_hilast
_sysctl__net_inet_ip_portrange_last
_sysctl__net_inet_ip_portrange_lowfirst
_sysctl__net_inet_ip_portrange_lowlast
_sysctl__net_inet_ip_redirect
_sysctl__net_inet_ip_rtexpire
_sysctl__net_inet_ip_rtmaxcache
_sysctl__net_inet_ip_rtminexpire
_sysctl__net_inet_ip_sourceroute
_sysctl__net_inet_ip_stats
_sysctl__net_inet_ip_subnets_are_local
_sysctl__net_inet_ip_ttl
_sysctl__net_inet_ip_use_route_genid
_sysctl__net_inet_ipsec
_sysctl__net_inet_ipsec_ah_cleartos
_sysctl__net_inet_ipsec_ah_net_deflev
_sysctl__net_inet_ipsec_ah_offsetmask
_sysctl__net_inet_ipsec_ah_trans_deflev
_sysctl__net_inet_ipsec_bypass
_sysctl__net_inet_ipsec_children
_sysctl__net_inet_ipsec_debug
_sysctl__net_inet_ipsec_def_policy
_sysctl__net_inet_ipsec_dfbit
_sysctl__net_inet_ipsec_ecn
_sysctl__net_inet_ipsec_esp_net_deflev
_sysctl__net_inet_ipsec_esp_port
_sysctl__net_inet_ipsec_esp_randpad
_sysctl__net_inet_ipsec_esp_trans_deflev
_sysctl__net_inet_ipsec_stats
_sysctl__net_inet_raw
_sysctl__net_inet_raw_children
_sysctl__net_inet_raw_maxdgram
_sysctl__net_inet_raw_pcblist
_sysctl__net_inet_raw_recvspace
_sysctl__net_inet_tcp
_sysctl__net_inet_tcp_always_keepalive
_sysctl__net_inet_tcp_blackhole
_sysctl__net_inet_tcp_children
_sysctl__net_inet_tcp_delacktime
_sysctl__net_inet_tcp_delayed_ack
_sysctl__net_inet_tcp_do_tcpdrain
_sysctl__net_inet_tcp_drop_synfin
_sysctl__net_inet_tcp_icmp_may_rst
_sysctl__net_inet_tcp_isn_reseed_interval
_sysctl__net_inet_tcp_keepidle
_sysctl__net_inet_tcp_keepinit
_sysctl__net_inet_tcp_keepintvl
_sysctl__net_inet_tcp_local_slowstart_flightsize
_sysctl__net_inet_tcp_log_in_vain
_sysctl__net_inet_tcp_minmss
_sysctl__net_inet_tcp_minmssoverload
_sysctl__net_inet_tcp_msl
_sysctl__net_inet_tcp_mssdflt
_sysctl__net_inet_tcp_newreno
_sysctl__net_inet_tcp_packetchain
_sysctl__net_inet_tcp_path_mtu_discovery
_sysctl__net_inet_tcp_pcbcount
_sysctl__net_inet_tcp_pcblist
_sysctl__net_inet_tcp_reass
_sysctl__net_inet_tcp_reass_children
_sysctl__net_inet_tcp_reass_cursegments
_sysctl__net_inet_tcp_reass_maxsegments
_sysctl__net_inet_tcp_reass_overflows
_sysctl__net_inet_tcp_recvspace
_sysctl__net_inet_tcp_rfc1323
_sysctl__net_inet_tcp_rfc1644
_sysctl__net_inet_tcp_sack
_sysctl__net_inet_tcp_sack_globalholes
_sysctl__net_inet_tcp_sack_globalmaxholes
_sysctl__net_inet_tcp_sack_maxholes
_sysctl__net_inet_tcp_sendspace
_sysctl__net_inet_tcp_slowlink_wsize
_sysctl__net_inet_tcp_slowstart_flightsize
_sysctl__net_inet_tcp_sockthreshold
_sysctl__net_inet_tcp_stats
_sysctl__net_inet_tcp_strict_rfc1948
_sysctl__net_inet_tcp_tcbhashsize
_sysctl__net_inet_tcp_tcp_lq_overflow
_sysctl__net_inet_tcp_v6mssdflt
_sysctl__net_inet_udp
_sysctl__net_inet_udp_blackhole
_sysctl__net_inet_udp_checksum
_sysctl__net_inet_udp_children
_sysctl__net_inet_udp_log_in_vain
_sysctl__net_inet_udp_maxdgram
_sysctl__net_inet_udp_pcbcount
_sysctl__net_inet_udp_pcblist
_sysctl__net_inet_udp_recvspace
_sysctl__net_inet_udp_stats
_sysctl__net_key
_sysctl__net_key_ah_keymin
_sysctl__net_key_blockacq_count
_sysctl__net_key_blockacq_lifetime
_sysctl__net_key_children
_sysctl__net_key_debug
_sysctl__net_key_esp_auth
_sysctl__net_key_esp_keymin
_sysctl__net_key_int_random
_sysctl__net_key_larval_lifetime
_sysctl__net_key_natt_keepalive_interval
_sysctl__net_key_pfkeystat
_sysctl__net_key_prefered_oldsa
_sysctl__net_key_spi_maxval
_sysctl__net_key_spi_minval
_sysctl__net_key_spi_trycnt
_sysctl__net_link
_sysctl__net_link_children
_sysctl__net_link_ether
_sysctl__net_link_ether_children
_sysctl__net_link_ether_inet
_sysctl__net_link_ether_inet_apple_hwcksum_rx
_sysctl__net_link_ether_inet_apple_hwcksum_tx
_sysctl__net_link_ether_inet_children
_sysctl__net_link_ether_inet_host_down_time
_sysctl__net_link_ether_inet_log_arp_warnings
_sysctl__net_link_ether_inet_max_age
_sysctl__net_link_ether_inet_maxtries
_sysctl__net_link_ether_inet_proxyall
_sysctl__net_link_ether_inet_prune_intvl
_sysctl__net_link_ether_inet_useloopback
_sysctl__net_link_generic
_sysctl__net_link_generic_children
_sysctl__net_link_generic_ifalldata
_sysctl__net_link_generic_ifalldata_children
_sysctl__net_link_generic_ifdata
_sysctl__net_link_generic_ifdata_children
_sysctl__net_link_generic_system
_sysctl__net_link_generic_system_children
_sysctl__net_link_generic_system_ifcount
_sysctl__net_local
_sysctl__net_local_children
_sysctl__net_local_dgram
_sysctl__net_local_dgram_children
_sysctl__net_local_dgram_maxdgram
_sysctl__net_local_dgram_pcblist
_sysctl__net_local_dgram_recvspace
_sysctl__net_local_inflight
_sysctl__net_local_stream
_sysctl__net_local_stream_children
_sysctl__net_local_stream_pcblist
_sysctl__net_local_stream_recvspace
_sysctl__net_local_stream_sendspace
_sysctl__net_routetable
_sysctl__net_routetable_children
_sysctl__sysctl
_sysctl__sysctl_children
_sysctl__sysctl_debug
_sysctl__sysctl_name
_sysctl__sysctl_name2oid
_sysctl__sysctl_name_children
_sysctl__sysctl_next
_sysctl__sysctl_next_children
_sysctl__sysctl_oidfmt
_sysctl__sysctl_oidfmt_children
_sysctl__sysctl_proc_cputype
_sysctl__sysctl_proc_native
_sysctl__user
_sysctl__user_children
_sysctl__vfs
_sysctl__vfs_children
_sysctl__vfs_generic
_sysctl__vfs_generic_children
_sysctl__vfs_generic_ctlbyfsid
_sysctl__vfs_generic_ctlbyfsid_children
_sysctl__vfs_generic_nfs
_sysctl__vfs_generic_nfs_children
_sysctl__vfs_generic_nfs_client
_sysctl__vfs_generic_nfs_client_children
_sysctl__vfs_generic_nfs_client_initialdowndelay
_sysctl__vfs_generic_nfs_client_nextdowndelay
_sysctl__vfs_generic_noremotehang
_sysctl__vfs_generic_vfsidlist
_sysctl__vm
_sysctl__vm_children
_sysctl__vm_shared_region_trace_level
_sysctl_clockrate
_sysctl_doproc
_sysctl_file
_sysctl_handle_int
_sysctl_handle_int2quad
_sysctl_handle_long
_sysctl_handle_opaque
_sysctl_handle_quad
_sysctl_handle_string
_sysctl_int
_sysctl_mib_init
_sysctl_procargs
_sysctl_quad
_sysctl_rdint
_sysctl_rdquad
_sysctl_rdstring
_sysctl_rdstruct
_sysctl_register_all
_sysctl_register_fixed
_sysctl_register_oid
_sysctl_register_set
_sysctl_set
_sysctl_string
_sysctl_struct
_sysctl_trstring
_sysctl_unregister_oid
_sysctl_unregister_set
_sysctl_vnode
_sysctlbyname
_sysdom
_systemLogDiags
_systemdomain
_systemdomain_init
_t_fl
_t_fn
_t_il
_t_im
_t_in
_t_rc
_tablefull
_taproot_addr
_taproot_size
_task_act_iterate_wth_args
_task_assign
_task_assign_default
_task_backing_store_privileged
_task_create
_task_create_internal
_task_deallocate
_task_for_pid
_task_get_assignment
_task_get_emulation_vector
_task_get_exception_ports
_task_get_special_port
_task_halt
_task_hold
_task_hold_locked
_task_importance
_task_info
_task_init
_task_name_deallocate
_task_name_for_pid
_task_policy
_task_policy_get
_task_policy_set
_task_reference
_task_release
_task_release_locked
_task_resume
_task_sample
_task_self_trap
_task_server
_task_server_routine
_task_set_64bit
_task_set_emulation
_task_set_emulation_vector
_task_set_exception_ports
_task_set_info
_task_set_ledger
_task_set_policy
_task_set_port_space
_task_set_ras_pc
_task_set_special_port
_task_subsystem
_task_suspend
_task_swap_exception_ports
_task_swappable
_task_synchronizer_destroy_all
_task_terminate
_task_terminate_internal
_task_threads
_task_wait_locked
_task_wire
_task_working_set_create
_task_working_set_disable
_task_zone
_tbeproc
_tcb
_tcbinfo
_tcp6_ctlinput
_tcp6_input
_tcp6_usrreqs
_tcp_backoff
_tcp_canceltimers
_tcp_ccgen
_tcp_clean_sackreport
_tcp_close
_tcp_ctlinput
_tcp_ctloutput
_tcp_delack_enabled
_tcp_delacktime
_tcp_do_newreno
_tcp_do_sack
_tcp_drain
_tcp_drop
_tcp_drop_syn_sent
_tcp_fasttimo
_tcp_fillheaders
_tcp_free_sackholes
_tcp_freeq
_tcp_getlock
_tcp_gettaocache
_tcp_init
_tcp_input
_tcp_keepidle
_tcp_keepinit
_tcp_keepintvl
_tcp_lock
_tcp_lq_overflow
_tcp_maketemplate
_tcp_maxidle
_tcp_maxpersistidle
_tcp_minmss
_tcp_msl
_tcp_mss
_tcp_mssdflt
_tcp_mssopt
_tcp_mtudisc
_tcp_new_isn
_tcp_newtcpcb
_tcp_now
_tcp_output
_tcp_packet_chaining
_tcp_quench
_tcp_recvspace
_tcp_respond
_tcp_rtlookup
_tcp_rtlookup6
_tcp_sack_adjust
_tcp_sack_doack
_tcp_sack_output
_tcp_sack_partialack
_tcp_sendspace
_tcp_setpersist
_tcp_slowtimo
_tcp_syn_backoff
_tcp_timers
_tcp_unlock
_tcp_update_sack_list
_tcp_usrreqs
_tcp_v6mssdflt
_tcpstat
_temp_msgbuf
_temp_patch_ptrace
_temp_unpatch_ptrace
_termioschars
_testPerfTrap
_test_tws
_testbit
_thandler
_thread_abort
_thread_abort_safely
_thread_act_server
_thread_act_server_routine
_thread_act_subsystem
_thread_adjuserstack
_thread_assign
_thread_assign_default
_thread_begin
_thread_bind
_thread_block
_thread_block_parameter
_thread_block_reason
_thread_bootstrap
_thread_bootstrap_return
_thread_call_allocate
_thread_call_cancel
_thread_call_enter
_thread_call_enter1
_thread_call_enter1_delayed
_thread_call_enter_delayed
_thread_call_free
_thread_call_func
_thread_call_func_cancel
_thread_call_func_delayed
_thread_call_initialize
_thread_call_is_delayed
_thread_call_setup
_thread_cancel_timer
_thread_change_psets
_thread_continue
_thread_create
_thread_create_running
_thread_daemon_init
_thread_deallocate
_thread_depress_abort
_thread_depress_abort_internal
_thread_depress_abstime
_thread_depress_expire
_thread_depress_ms
_thread_dispatch
_thread_done
_thread_dup
_thread_enable_fpe
_thread_entrypoint
_thread_exception_return
_thread_flavor_array
_thread_funnel_get
_thread_funnel_set
_thread_get_assignment
_thread_get_exception_ports
_thread_get_special_port
_thread_get_state
_thread_getstatus
_thread_go
_thread_hold
_thread_info
_thread_info_internal
_thread_init
_thread_invoke
_thread_issignal
_thread_policy
_thread_policy_get
_thread_policy_reset
_thread_policy_set
_thread_poll_yield
_thread_quantum_expire
_thread_read_times
_thread_reference
_thread_release
_thread_resume
_thread_run
_thread_sample
_thread_select
_thread_self_trap
_thread_set_child
_thread_set_exception_ports
_thread_set_parent
_thread_set_policy
_thread_set_special_port
_thread_set_state
_thread_set_timer
_thread_set_timer_deadline
_thread_setentrypoint
_thread_setrun
_thread_setsinglestep
_thread_setstatus
_thread_setuserstack
_thread_should_abort
_thread_should_halt
_thread_sleep_lock_write
_thread_sleep_lock_write_EXT
_thread_sleep_mutex
_thread_sleep_mutex_EXT
_thread_sleep_mutex_deadline
_thread_sleep_mutex_deadline_EXT
_thread_sleep_usimple_lock
_thread_sleep_usimple_lock_EXT
_thread_stack_enqueue
_thread_state_initialize
_thread_stop
_thread_suspend
_thread_swap_exception_ports
_thread_switch
_thread_syscall_return
_thread_task_priority
_thread_terminate
_thread_terminate_enqueue
_thread_terminate_internal
_thread_terminate_self
_thread_timer_expire
_thread_unblock
_thread_unstop
_thread_userstack
_thread_wait
_thread_wakeup
_thread_wakeup_prim
_thread_wire
_thread_wire_internal
_threadsignal
_tick
_time_wait_slots
_time_zone_slock_init
_timeout
_timer_call_cancel
_timer_call_enter
_timer_call_enter1
_timer_call_initialize
_timer_call_is_delayed
_timer_call_setup
_timer_call_shutdown
_timer_delta
_timer_event
_timer_grab
_timer_init
_timer_switch
_timer_update
_timeshare_quanta_update
_timevaladd
_timevalfix
_timevalsub
_tk_cancc
_tk_nin
_tk_nout
_tk_rawcc
_tlbie
_to_bsd_time
_to_hfs_time
_toss_live_fpu
_toss_live_vec
_tprintf
_tprintf_close
_tprintf_open
_tputchar
_trackrouter
_trackrouter_rem_if
_trailer_template
_trap
_trap_type
_trashMemory
_trcWork
_trigger_name_to_port
_trp_tmo_rcb
_truncate
_tsleep
_tsleep0
_tsleep1
_tstbit
_ttalk_multicast_addr
_ttioctl
_ttread
_ttrstrt
_ttselect
_ttsetwater
_ttspeedtab
_ttstart
_ttwakeup
_ttwrite
_ttwwakeup
_tty_pgsignal
_ttyblock
_ttychars
_ttycheckoutq
_ttyclose
_ttyflush
_ttyfree
_ttyinfo
_ttyinput
_ttylclose
_ttymalloc
_ttymodem
_ttyopen
_ttyprintf
_ttyselect
_ttysleep
_ttywait
_tvtoabstime
_tvtohz
_tws_build_cluster
_tws_create_startup_list
_tws_expand_working_set
_tws_handle_startup_file
_tws_hash_clear
_tws_hash_create
_tws_hash_destroy
_tws_hash_line_clear
_tws_hash_ws_flush
_tws_insert
_tws_internal_lookup
_tws_internal_startup_send
_tws_line_signal
_tws_lookup
_tws_read_startup_file
_tws_read_startup_file_rejects
_tws_send_startup_info
_tws_startup_list_lookup
_tws_test_for_community
_tws_traverse_address_hash_list
_tws_traverse_object_hash_list
_tws_write_startup_file
_tz
_tz_slock
_tz_slock_attr
_tz_slock_grp
_tz_slock_grp_attr
_ubc_blktooff
_ubc_create_upl
_ubc_getcred
_ubc_getobject
_ubc_getsize
_ubc_info_deallocate
_ubc_info_init
_ubc_info_init_internal
_ubc_info_init_withsize
_ubc_info_zone
_ubc_isinuse
_ubc_isinuse_locked
_ubc_msync
_ubc_offtoblk
_ubc_page_op
_ubc_pages_resident
_ubc_range_op
_ubc_setcred
_ubc_setsize
_ubc_setthreadcred
_ubc_sync_range
_ubc_upl_abort
_ubc_upl_abort_range
_ubc_upl_commit
_ubc_upl_commit_range
_ubc_upl_map
_ubc_upl_pageinfo
_ubc_upl_unmap
_ucsfncmp
_ucsfntrans
_udb
_udbinfo
_udp6_ctlinput
_udp6_input
_udp6_output
_udp6_recvspace
_udp6_sendspace
_udp6_usrreqs
_udp_ctlinput
_udp_getlock
_udp_in6
_udp_init
_udp_input
_udp_ip6
_udp_lock
_udp_notify
_udp_recvspace
_udp_sendspace
_udp_shutdown
_udp_slowtimo
_udp_ttl
_udp_unlock
_udp_usrreqs
_udpstat
_ufs_blockmap
_ufs_bmaparray
_ufs_checkpath
_ufs_close
_ufs_create
_ufs_dirbad
_ufs_dirbadentry
_ufs_dirempty
_ufs_direnter
_ufs_direnter2
_ufs_dirremove
_ufs_dirrewrite
_ufs_getattr
_ufs_getlbns
_ufs_ihashget
_ufs_ihashinit
_ufs_ihashins
_ufs_ihashlookup
_ufs_ihashrem
_ufs_inactive
_ufs_init
_ufs_ioctl
_ufs_kqfilt_add
_ufs_link
_ufs_lookup
_ufs_makeinode
_ufs_mkdir
_ufs_mknod
_ufs_mmap
_ufs_nchstats
_ufs_open
_ufs_pathconf
_ufs_quotactl
_ufs_readdir
_ufs_readlink
_ufs_reclaim
_ufs_remove
_ufs_remove_internal
_ufs_rename
_ufs_rmdir
_ufs_root
_ufs_select
_ufs_setattr
_ufs_start
_ufs_strategy
_ufs_symlink
_ufs_vfsops
_ufs_whiteout
_ufsfifo_close
_ufsfifo_kqfilt_add
_ufsfifo_read
_ufsfifo_write
_ufsspec_close
_ufsspec_read
_ufsspec_write
_uft_cuttrace
_uft_nop_if_32bit
_uft_uaw_nop_if_32bit
_uihash
_uihashtbl
_uio_addiov
_uio_create
_uio_curriovbase
_uio_curriovlen
_uio_duplicate
_uio_free
_uio_getiov
_uio_iovcnt
_uio_iovsaddr
_uio_isuserspace
_uio_offset
_uio_reset
_uio_resid
_uio_rw
_uio_setoffset
_uio_setresid
_uio_setrw
_uio_spacetype
_uio_update
_uiomove
_uiomove64
_uipc_ctloutput
_uipc_lock
_uipc_usrreqs
_ulock_release_all
_ulock_release_internal
_umask
_umask_extended
_undelete
_unicode_to_hfs
_union_access
_union_advlock
_union_allocvp
_union_blktooff
_union_blockmap
_union_close
_union_copyfile
_union_copyup
_union_create
_union_dircache
_union_dowhiteout
_union_freevp
_union_fsync
_union_getattr
_union_inactive
_union_init
_union_ioctl
_union_link
_union_lookup
_union_mkdir
_union_mknod
_union_mkshadow
_union_mkwhiteout
_union_mmap
_union_mount
_union_newlower
_union_newsize
_union_newupper
_union_offtoblk
_union_open
_union_pagein
_union_pageout
_union_pathconf
_union_read
_union_readdir
_union_readlink
_union_reclaim
_union_remove
_union_removed_upper
_union_rename
_union_revoke
_union_rmdir
_union_root
_union_select
_union_setattr
_union_start
_union_strategy
_union_symlink
_union_unmount
_union_updatevp
_union_vfsops
_union_vn_close
_union_vn_create
_union_vnodeop_entries
_union_vnodeop_opv_desc
_union_vnodeop_p
_union_whiteout
_union_write
_unix_syscall
_unix_syscall_return
_unlink
_unlock_debugger
_unlock_fsnode
_unmount
_unp_connect2
_unp_dispose
_unp_externalize
_unp_gc_wait
_unp_init
_unp_zone
_unputc
_unresolved_kernel_trap
_untimeout
_update_default_shared_region
_update_priority
_upl_abort
_upl_abort_range
_upl_clear_dirty
_upl_commit
_upl_commit_range
_upl_cow
_upl_cow_again
_upl_cow_again_pages
_upl_cow_contiguous
_upl_cow_contiguous_pages
_upl_cow_pages
_upl_deallocate
_upl_dirty_page
_upl_encrypt
_upl_encrypt_pages
_upl_encrypt_upls
_upl_get_highest_page
_upl_get_internal_page_list
_upl_get_internal_pagelist_offset
_upl_offset_to_pagelist
_upl_page_present
_upl_phys_page
_upl_server
_upl_server_routine
_upl_subsystem
_upl_transpose
_upl_valid_page
_uprintf
_upshift8
_ureadc
_user_warned
_useracc
_userland_sysctl
_usimple_lock
_usimple_lock_EXT
_usimple_lock_init
_usimple_lock_init_EXT
_usimple_lock_try
_usimple_lock_try_EXT
_usimple_unlock
_usimple_unlock_EXT
_utf8_decodestr
_utf8_encodelen
_utf8_encodestr
_utf8_to_hfs
_utf8_to_mac_roman
_utf8_validatestr
_utf_extrabytes
_uthread_alloc
_uthread_free
_uthread_zone
_uthread_zone_init
_uthread_zone_inited
_utimes
_utrace
_uuid_clear
_uuid_compare
_uuid_copy
_uuid_generate
_uuid_generate_random
_uuid_generate_time
_uuid_is_null
_uuid_parse
_uuid_unparse
_uuid_unparse_lower
_uuid_unparse_upper
_uwritec
_ux_exception_port
_ux_handler_init
_v_putc
_validfsnode
_vc_display_icon
_vc_progress_initialize
_vc_progress_lock
_vcattach
_vcgetc
_vcount
_vcputc
_vec_save
_vec_switch
_verbose
_version
_version_major
_version_minor
_version_prerelease_level
_version_revision
_version_stage
_version_variant
_vetoSleepWakeNotification
_vflush
_vfork
_vfork_exit
_vfork_return
_vfs_64bitready
_vfs_addname
_vfs_authopaque
_vfs_authopaqueaccess
_vfs_busy
_vfs_clearauthopaque
_vfs_clearauthopaqueaccess
_vfs_clearextendedsecurity
_vfs_clearflags
_vfs_context_create
_vfs_context_is64bit
_vfs_context_issignal
_vfs_context_issuser
_vfs_context_pid
_vfs_context_proc
_vfs_context_rele
_vfs_context_suser
_vfs_context_ucred
_vfs_devblocksize
_vfs_event_init
_vfs_event_signal
_vfs_extendedsecurity
_vfs_flags
_vfs_fsadd
_vfs_fsprivate
_vfs_fsremove
_vfs_getattr
_vfs_getnewfsid
_vfs_getvfs
_vfs_getvfs_by_mntonname
_vfs_getvfs_locked
_vfs_init_io_attributes
_vfs_ioattr
_vfs_isforce
_vfs_isrdonly
_vfs_isrdwr
_vfs_isreload
_vfs_issynchronous
_vfs_isupdate
_vfs_iswriteupgrade
_vfs_iterate
_vfs_maxsymlen
_vfs_mountedon
_vfs_mountref
_vfs_mountrele
_vfs_mountroot
_vfs_name
_vfs_nummntops
_vfs_op_descs
_vfs_op_init
_vfs_opv_descs
_vfs_opv_init
_vfs_opv_numops
_vfs_removename
_vfs_rootmountalloc
_vfs_rootvnode
_vfs_setattr
_vfs_setauthopaque
_vfs_setauthopaqueaccess
_vfs_setextendedsecurity
_vfs_setflags
_vfs_setfsprivate
_vfs_setioattr
_vfs_setlocklocal
_vfs_setmaxsymlen
_vfs_statfs
_vfs_sysctl
_vfs_typenum
_vfs_unbusy
_vfs_update_vfsstat
_vfsconf
_vfsinit
_vfstable_add
_vfstable_del
_video_scroll_down
_video_scroll_up
_vinfo
_virtual_space_end
_virtual_space_start
_vm_accellerate_zf_pageout_trigger
_vm_allocate
_vm_allocate_cpm
_vm_allocate_cpm_privileged
_vm_allow_clustered_pagein
_vm_backing_store_disable
_vm_backing_store_low
_vm_behavior_set
_vm_compute_max_offset
_vm_conflict_check
_vm_copy
_vm_countdirtypages
_vm_deallocate
_vm_default_ahead
_vm_default_behind
_vm_external_copy
_vm_external_create
_vm_external_destroy
_vm_external_map_size
_vm_external_module_initialize
_vm_external_state_clr
_vm_external_state_set
_vm_external_within
_vm_fault
_vm_fault_cleanup
_vm_fault_copy
_vm_fault_copy_cleanup
_vm_fault_copy_dst_cleanup
_vm_fault_debug
_vm_fault_init
_vm_fault_list_request
_vm_fault_page
_vm_fault_unwire
_vm_fault_wire
_vm_fault_wire_fast
_vm_get_shared_region
_vm_himemory_mode
_vm_inherit
_vm_initial_limit_core
_vm_initial_limit_data
_vm_initial_limit_stack
_vm_last_addr
_vm_lopage_free_count
_vm_lopage_max_count
_vm_lopage_poolend
_vm_lopage_poolsize
_vm_lopage_poolstart
_vm_lopage_queue_free
_vm_machine_attribute
_vm_map
_vm_map_64
_vm_map_behavior_set
_vm_map_check_protection
_vm_map_clear_4GB_pagezero
_vm_map_commpage64
_vm_map_copy_copy
_vm_map_copy_discard
_vm_map_copy_overwrite
_vm_map_copyin_common
_vm_map_copyin_object
_vm_map_copyout
_vm_map_create
_vm_map_create_upl
_vm_map_deallocate
_vm_map_destroy
_vm_map_disable_NX
_vm_map_enter
_vm_map_enter_cpm
_vm_map_enter_upl
_vm_map_entry_insert
_vm_map_find_space
_vm_map_fork
_vm_map_get_phys_page
_vm_map_get_upl
_vm_map_has_4GB_pagezero
_vm_map_inherit
_vm_map_init
_vm_map_lookup_entry
_vm_map_lookup_locked
_vm_map_machine_attribute
_vm_map_msync
_vm_map_page_info
_vm_map_page_query
_vm_map_pmap_enter_enable
_vm_map_pmap_enter_print
_vm_map_pmap_is_empty
_vm_map_protect
_vm_map_purgable_control
_vm_map_raise_min_offset
_vm_map_read_user
_vm_map_reference
_vm_map_region
_vm_map_region_recurse_64
_vm_map_region_replace
_vm_map_region_top_walk
_vm_map_region_walk
_vm_map_remap
_vm_map_remove
_vm_map_remove_commpage
_vm_map_remove_upl
_vm_map_server
_vm_map_server_routine
_vm_map_set_32bit
_vm_map_set_4GB_pagezero
_vm_map_set_64bit
_vm_map_simplify
_vm_map_simplify_entry
_vm_map_steal_memory
_vm_map_submap
_vm_map_submap_pmap_clean
_vm_map_subsystem
_vm_map_switch
_vm_map_unwire
_vm_map_verify
_vm_map_wire
_vm_map_write_user
_vm_mapped_pages_info
_vm_max_address
_vm_max_kernel_address
_vm_max_physical
_vm_mem_bootstrap
_vm_mem_init
_vm_min_kernel_address
_vm_msync
_vm_object_collapse_encrypted
_vm_object_hash_entry_free
_vm_object_iopl_request
_vm_object_page_op
_vm_object_page_remove_iterate
_vm_object_page_remove_lookup
_vm_object_range_op
_vm_object_reap_count
_vm_object_reap_count_async
_vm_object_shadow_check
_vm_object_terminate_remove_all
_vm_page_activate
_vm_page_active_count
_vm_page_alloc
_vm_page_alloc_lock
_vm_page_alloclo
_vm_page_bootstrap
_vm_page_bucket_count
_vm_page_bucket_hash
_vm_page_bucket_lock
_vm_page_buckets
_vm_page_convert
_vm_page_copy
_vm_page_create
_vm_page_deactivate
_vm_page_deactivate_behind
_vm_page_deactivate_hint
_vm_page_decrypt
_vm_page_decrypt_counter
_vm_page_decrypt_for_upl_counter
_vm_page_encrypt
_vm_page_encrypt_abort_counter
_vm_page_encrypt_already_encrypted_counter
_vm_page_encrypt_counter
_vm_page_fictitious_addr
_vm_page_fictitious_count
_vm_page_free
_vm_page_free_count
_vm_page_free_count_init
_vm_page_free_count_minimum
_vm_page_free_list
_vm_page_free_min
_vm_page_free_reserve
_vm_page_free_reserved
_vm_page_free_target
_vm_page_free_verify
_vm_page_free_wanted
_vm_page_gobble
_vm_page_gobble_count
_vm_page_gobble_count_warning
_vm_page_grab
_vm_page_grab_count
_vm_page_grab_fictitious
_vm_page_grablo
_vm_page_hash_mask
_vm_page_hash_shift
_vm_page_inactive_count
_vm_page_inactive_target
_vm_page_init
_vm_page_insert
_vm_page_lookup
_vm_page_lookup_hint
_vm_page_lookup_hint_miss
_vm_page_lookup_hint_next
_vm_page_lookup_hint_prev
_vm_page_lookup_nohint
_vm_page_mask
_vm_page_module_init
_vm_page_more_fictitious
_vm_page_pages
_vm_page_part_copy
_vm_page_part_zero_fill
_vm_page_purgeable_count
_vm_page_purged_count
_vm_page_queue_active
_vm_page_queue_fictitious
_vm_page_queue_free
_vm_page_queue_free_lock
_vm_page_queue_inactive
_vm_page_queue_lock
_vm_page_queue_zf
_vm_page_release
_vm_page_release_fictitious
_vm_page_remove
_vm_page_rename
_vm_page_replace
_vm_page_shift
_vm_page_template
_vm_page_throttled_count
_vm_page_ticket
_vm_page_ticket_roll
_vm_page_unwire
_vm_page_wait
_vm_page_wire
_vm_page_wire_count
_vm_page_wire_count_warning
_vm_page_zero_fill
_vm_page_zone
_vm_pageclean_copy
_vm_pageclean_setup
_vm_pagein_cluster_unused
_vm_pagein_cluster_used
_vm_pageout
_vm_pageout_active
_vm_pageout_burst_active_throttle
_vm_pageout_burst_inactive_throttle
_vm_pageout_burst_wait
_vm_pageout_cluster
_vm_pageout_continue
_vm_pageout_deadlock_relief
_vm_pageout_deadlock_wait
_vm_pageout_dirty_no_pager
_vm_pageout_empty_wait
_vm_pageout_idle_wait
_vm_pageout_in_place
_vm_pageout_inactive
_vm_pageout_inactive_absent
_vm_pageout_inactive_avoid
_vm_pageout_inactive_busy
_vm_pageout_inactive_clean
_vm_pageout_inactive_dirty
_vm_pageout_inactive_forced
_vm_pageout_inactive_nolock
_vm_pageout_inactive_relief
_vm_pageout_inactive_throttled
_vm_pageout_inactive_used
_vm_pageout_initialize_page
_vm_pageout_object_allocate
_vm_pageout_object_terminate
_vm_pageout_out_of_line
_vm_pageout_purged_objects
_vm_pageout_queue_external
_vm_pageout_queue_internal
_vm_pageout_reserved_internal
_vm_pageout_reserved_really
_vm_pageout_scan
_vm_pageout_scan_active_throttle_success
_vm_pageout_scan_active_throttled
_vm_pageout_scan_burst_throttle
_vm_pageout_scan_deadlock_detected
_vm_pageout_scan_empty_throttle
_vm_pageout_scan_event_counter
_vm_pageout_scan_inactive_throttle_success
_vm_pageout_scan_inactive_throttled
_vm_pageout_scan_throttle
_vm_pageout_setup
_vm_pageout_throttle_up
_vm_pageout_throttle_up_count
_vm_pages_encrypted
_vm_paging_base_address
_vm_paging_lock
_vm_paging_map_object
_vm_paging_max_index
_vm_paging_no_kernel_page
_vm_paging_objects_mapped
_vm_paging_objects_mapped_slow
_vm_paging_page_inuse
_vm_paging_pages_mapped
_vm_paging_pages_mapped_slow
_vm_paging_unmap_object
_vm_pool_low
_vm_protect
_vm_purgable_control
_vm_read
_vm_read_list
_vm_read_overwrite
_vm_region
_vm_region_64
_vm_region_clone
_vm_region_object_create
_vm_region_recurse
_vm_region_recurse_64
_vm_remap
_vm_set_page_size
_vm_set_shared_region
_vm_stat_discard
_vm_stat_discard_cleared_reply
_vm_stat_discard_cleared_too_late
_vm_stat_discard_cleared_unset
_vm_stat_discard_failure
_vm_stat_discard_sent
_vm_stat_discard_throttle
_vm_submap_object
_vm_sysctl
_vm_upl_map
_vm_upl_unmap
_vm_wire
_vm_write
_vm_zf_count
_vm_zf_iterator
_vm_zf_iterator_count
_vmm_activate_XA
_vmm_deactivate_XA
_vmm_dispatch
_vmm_dispatch_table
_vmm_execute_vm
_vmm_exit
_vmm_fam_exc
_vmm_fam_pf
_vmm_fam_reserved
_vmm_force_exit
_vmm_get_XA
_vmm_get_features
_vmm_get_features_sel
_vmm_get_float_state
_vmm_get_page_dirty_flag
_vmm_get_page_dirty_flag32
_vmm_get_page_mapping
_vmm_get_page_mapping32
_vmm_get_timer
_vmm_get_vector_state
_vmm_get_version
_vmm_get_version_sel
_vmm_init_context
_vmm_init_context_sel
_vmm_interrupt
_vmm_map_execute
_vmm_map_execute32
_vmm_map_list
_vmm_map_list32
_vmm_map_list64
_vmm_map_page
_vmm_map_page32
_vmm_max_addr
_vmm_protect_execute
_vmm_protect_execute32
_vmm_protect_page
_vmm_protect_page32
_vmm_set_timer
_vmm_stop_vm
_vmm_tear_down_all
_vmm_tear_down_context
_vmm_timer_pop
_vmm_ufp
_vmm_unmap_all_pages
_vmm_unmap_list
_vmm_unmap_page
_vmm_unmap_page32
_vn_access
_vn_bwrite
_vn_close
_vn_create
_vn_default_error
_vn_getpath
_vn_getxattr
_vn_listxattr
_vn_lock
_vn_open
_vn_open_auth
_vn_open_modflags
_vn_path_package_check
_vn_pathconf
_vn_rdwr
_vn_rdwr_64
_vn_removexattr
_vn_revoke
_vn_setxattr
_vn_stat
_vn_stat_noauth
_vn_table
_vndevice_init
_vndevice_root_image
_vnode_addfsref
_vnode_authattr
_vnode_authattr_new
_vnode_authorize
_vnode_authorize_init
_vnode_cache_credentials
_vnode_clearfsnode
_vnode_clearmountedon
_vnode_clearnocache
_vnode_clearnoflush
_vnode_clearnoreadahead
_vnode_close
_vnode_create
_vnode_free_list
_vnode_fsnode
_vnode_get
_vnode_getattr
_vnode_getname
_vnode_getparent
_vnode_getwithref
_vnode_getwithvid
_vnode_hascleanblks
_vnode_hasdirtyblks
_vnode_iftovt
_vnode_inactive_list
_vnode_isblk
_vnode_ischr
_vnode_isdir
_vnode_isfifo
_vnode_isinuse
_vnode_islnk
_vnode_ismount
_vnode_ismountedon
_vnode_isnocache
_vnode_isnoflush
_vnode_isnoreadahead
_vnode_isrecycled
_vnode_isreg
_vnode_issock
_vnode_isstandard
_vnode_issystem
_vnode_isvroot
_vnode_iterate
_vnode_lck_attr
_vnode_lck_grp
_vnode_lck_grp_attr
_vnode_list_lck_attr
_vnode_list_lck_grp
_vnode_list_lck_grp_attr
_vnode_list_lock
_vnode_list_mtx_lock
_vnode_list_unlock
_vnode_lock
_vnode_lookup
_vnode_makeimode
_vnode_mount
_vnode_mountedhere
_vnode_name
_vnode_object_create
_vnode_open
_vnode_pagein
_vnode_pageout
_vnode_pager_bootstrap
_vnode_pager_cluster_read
_vnode_pager_cluster_write
_vnode_pager_data_initialize
_vnode_pager_data_request
_vnode_pager_data_return
_vnode_pager_data_unlock
_vnode_pager_deallocate
_vnode_pager_get_filename
_vnode_pager_get_filesize
_vnode_pager_get_object_filename
_vnode_pager_get_object_pathname
_vnode_pager_get_object_size
_vnode_pager_get_object_vnode
_vnode_pager_get_pathname
_vnode_pager_init
_vnode_pager_lookup
_vnode_pager_ops
_vnode_pager_reference
_vnode_pager_release_from_cache
_vnode_pager_setup
_vnode_pager_shutdown
_vnode_pager_synchronize
_vnode_pager_terminate
_vnode_pager_unmap
_vnode_pager_zone
_vnode_parent
_vnode_put
_vnode_put_locked
_vnode_putname
_vnode_reclaim
_vnode_recycle
_vnode_ref
_vnode_ref_ext
_vnode_rele
_vnode_rele_ext
_vnode_rele_internal
_vnode_removefsref
_vnode_resume
_vnode_set_hard_link
_vnode_setattr
_vnode_setattr_fallback
_vnode_setmountedon
_vnode_setname
_vnode_setnocache
_vnode_setnoflush
_vnode_setnoreadahead
_vnode_setparent
_vnode_setsize
_vnode_settag
_vnode_size
_vnode_specrdev
_vnode_startwrite
_vnode_tag
_vnode_uncache_credentials
_vnode_unlock
_vnode_update_identity
_vnode_vfs64bitready
_vnode_vfscmdflags
_vnode_vfsfsprivate
_vnode_vfsisrdonly
_vnode_vfsmaxsymlen
_vnode_vfsname
_vnode_vfsstatfs
_vnode_vfstypenum
_vnode_vfsvisflags
_vnode_vid
_vnode_vttoif
_vnode_vtype
_vnode_waitforwrites
_vnode_writedone
_vnodetarget
_vnop_access_desc
_vnop_access_vp_offsets
_vnop_advlock_desc
_vnop_advlock_vp_offsets
_vnop_allocate_desc
_vnop_allocate_vp_offsets
_vnop_blktooff_desc
_vnop_blktooff_vp_offsets
_vnop_blockmap_desc
_vnop_blockmap_vp_offsets
_vnop_bwrite_desc
_vnop_bwrite_vp_offsets
_vnop_close_desc
_vnop_close_vp_offsets
_vnop_copyfile_desc
_vnop_copyfile_vp_offsets
_vnop_create_desc
_vnop_create_vp_offsets
_vnop_default_desc
_vnop_exchange_desc
_vnop_exchange_vp_offsets
_vnop_fsync_desc
_vnop_fsync_vp_offsets
_vnop_getattr_desc
_vnop_getattr_vp_offsets
_vnop_getattrlist_desc
_vnop_getattrlist_vp_offsets
_vnop_getxattr_desc
_vnop_inactive_desc
_vnop_inactive_vp_offsets
_vnop_ioctl_desc
_vnop_ioctl_vp_offsets
_vnop_kqfilt_add_desc
_vnop_kqfilt_add_vp_offsets
_vnop_kqfilt_remove_desc
_vnop_kqfilt_remove_vp_offsets
_vnop_link_desc
_vnop_link_vp_offsets
_vnop_listxattr_desc
_vnop_lookup_desc
_vnop_lookup_vp_offsets
_vnop_mkdir_desc
_vnop_mkdir_vp_offsets
_vnop_mknod_desc
_vnop_mknod_vp_offsets
_vnop_mmap_desc
_vnop_mmap_vp_offsets
_vnop_mnomap_desc
_vnop_mnomap_vp_offsets
_vnop_offtoblk_desc
_vnop_offtoblk_vp_offsets
_vnop_open_desc
_vnop_open_vp_offsets
_vnop_pagein_desc
_vnop_pagein_vp_offsets
_vnop_pageout_desc
_vnop_pageout_vp_offsets
_vnop_pathconf_desc
_vnop_pathconf_vp_offsets
_vnop_read_desc
_vnop_read_vp_offsets
_vnop_readdir_desc
_vnop_readdir_vp_offsets
_vnop_readdirattr_desc
_vnop_readdirattr_vp_offsets
_vnop_readlink_desc
_vnop_readlink_vp_offsets
_vnop_reclaim_desc
_vnop_reclaim_vp_offsets
_vnop_remove_desc
_vnop_remove_vp_offsets
_vnop_removexattr_desc
_vnop_rename_desc
_vnop_rename_vp_offsets
_vnop_revoke_desc
_vnop_revoke_vp_offsets
_vnop_rmdir_desc
_vnop_rmdir_vp_offsets
_vnop_searchfs_desc
_vnop_searchfs_vp_offsets
_vnop_select_desc
_vnop_select_vp_offsets
_vnop_setattr_desc
_vnop_setattr_vp_offsets
_vnop_setattrlist_desc
_vnop_setattrlist_vp_offsets
_vnop_setxattr_desc
_vnop_strategy_desc
_vnop_strategy_vp_offsets
_vnop_symlink_desc
_vnop_symlink_vp_offsets
_vnop_whiteout_desc
_vnop_whiteout_vp_offsets
_vnop_write_desc
_vnop_write_vp_offsets
_vnops
_volfs_load
_volfs_vfsops
_volfs_vnodeop_entries
_volfs_vnodeop_opv_desc
_volfs_vnodeop_p
_vop_getxattr_vp_offsets
_vop_listxattr_vp_offsets
_vop_removexattr_vp_offsets
_vop_setxattr_vp_offsets
_vp_pagein
_vp_pgoclean
_vp_pgodirty
_vprint
_vproc_exit
_vs_alloc_async
_vs_alloc_async_count
_vs_alloc_async_failed
_vs_async_free_list
_vs_cl_write_complete
_vs_cluster_transfer
_vs_cluster_write
_vs_do_async_write
_vs_free_async
_vs_get_map_entry
_vs_object_create
_vslock
_vsnprintf
_vsprintf
_vsscanf
_vstruct_def_clshift
_vstruct_list
_vstruct_zone
_vsunlock
_vttoif_tab
_wait1continue
_wait4
_wait_queue_alloc
_wait_queue_assert_wait
_wait_queue_assert_wait64
_wait_queue_free
_wait_queue_init
_wait_queue_link
_wait_queue_link_noalloc
_wait_queue_link_size
_wait_queue_member
_wait_queue_set_alloc
_wait_queue_set_free
_wait_queue_set_init
_wait_queue_set_size
_wait_queue_set_unlink_all
_wait_queue_set_unlink_all_nofree
_wait_queue_sub_clearrefs
_wait_queue_sub_init
_wait_queue_unlink
_wait_queue_unlink_all
_wait_queue_unlink_one
_wait_queue_unlinkall_nofree
_wait_queue_wakeup64_all
_wait_queue_wakeup64_one
_wait_queue_wakeup64_thread
_wait_queue_wakeup_all
_wait_queue_wakeup_one
_wait_queue_wakeup_thread
_wait_queues
_wait_queues_init
_wait_subqueue_unlink_all
_waitevent
_waitevent_close
_waitid
_waitidcontinue
_waittime
_wakeup
_wakeup_one
_warFlags
_watchevent
_wcte
_wr_uio
_write
_writev
_xLoadDBATsLL
_xLoadIBATsLL
_xattr_protected
_xattr_validatename
_xpatcnt
_xsum_assym
_xsum_nop_if_32bit
_zError
_z_errmsg
_zalloc
_zalloc_async
_zalloc_canblock
_zalloc_end_of_space
_zalloc_next_space
_zalloc_noblock
_zalloc_wasted_space
_zcram
_zdata
_zdata_size
_zeroin6_addr
_zeroin_addr
_zeros
_zfill
_zfree
_zgc_stats
_zget
_zget_space
_zget_space_lock
_zinit
_zip_control
_zip_handle_getmyzone
_zip_prep_query_packet
_zip_reply_received
_zip_reply_to_getlocalzones
_zip_reply_to_getzonelist
_zip_router_input
_zip_sched_getnetinfo
_zip_send_queries
_zip_type_packet
_zlibVersion
_zombproc
_zone_bootstrap
_zone_change
_zone_check
_zone_free_count
_zone_gc
_zone_gc_allowed
_zone_gc_forced
_zone_gc_last_tick
_zone_gc_lock
_zone_gc_max_rate
_zone_init
_zone_map
_zone_map_max_address
_zone_map_min_address
_zone_page_alloc
_zone_page_collect
_zone_page_collectable
_zone_page_free_element
_zone_page_init
_zone_page_keep
_zone_page_table
_zone_pages
_zone_steal_memory
_zone_zone
_zonename_equal
_zprealloc
_zt_add_zone
_zt_add_zonename
_zt_clr_zmap
_zt_compute_hash
_zt_ent_zcount
_zt_ent_zindex
_zt_find_zname
_zt_getNextZone
_zt_get_zmcast
_zt_remove_zones
_zt_set_zmap
_zt_upper_zname
dbgCkptCall
dbgDispCall
dbgRegsCall
debstash
fwdisplock
hexTab
hexfont
iNullCall
